
inzynierka_pcb_final.elf:     file format elf32-avr

Sections:
Idx Name          Size      VMA       LMA       File off  Algn
  0 .text         00002a78  00000000  00000000  00000094  2**1
                  CONTENTS, ALLOC, LOAD, READONLY, CODE
  1 .data         0000007e  00800060  00002a78  00002b0c  2**0
                  CONTENTS, ALLOC, LOAD, DATA
  2 .bss          00000631  008000de  008000de  00002b8a  2**0
                  ALLOC
  3 .stab         00000d08  00000000  00000000  00002b8c  2**2
                  CONTENTS, READONLY, DEBUGGING
  4 .stabstr      00000272  00000000  00000000  00003894  2**0
                  CONTENTS, READONLY, DEBUGGING
  5 .comment      0000002f  00000000  00000000  00003b06  2**0
                  CONTENTS, READONLY
  6 .debug_aranges 00000060  00000000  00000000  00003b35  2**0
                  CONTENTS, READONLY, DEBUGGING
  7 .debug_info   000008c1  00000000  00000000  00003b95  2**0
                  CONTENTS, READONLY, DEBUGGING
  8 .debug_abbrev 000003f1  00000000  00000000  00004456  2**0
                  CONTENTS, READONLY, DEBUGGING
  9 .debug_line   000005f1  00000000  00000000  00004847  2**0
                  CONTENTS, READONLY, DEBUGGING
 10 .debug_frame  000000b4  00000000  00000000  00004e38  2**2
                  CONTENTS, READONLY, DEBUGGING
 11 .debug_str    0000023a  00000000  00000000  00004eec  2**0
                  CONTENTS, READONLY, DEBUGGING
 12 .debug_loc    00000631  00000000  00000000  00005126  2**0
                  CONTENTS, READONLY, DEBUGGING
 13 .debug_ranges 00000030  00000000  00000000  00005757  2**0
                  CONTENTS, READONLY, DEBUGGING

Disassembly of section .text:

00000000 <__vectors>:
       0:	0c 94 fc 08 	jmp	0x11f8	; 0x11f8 <__ctors_end>
       4:	0c 94 19 09 	jmp	0x1232	; 0x1232 <__bad_interrupt>
       8:	0c 94 19 09 	jmp	0x1232	; 0x1232 <__bad_interrupt>
       c:	0c 94 19 09 	jmp	0x1232	; 0x1232 <__bad_interrupt>
      10:	0c 94 19 09 	jmp	0x1232	; 0x1232 <__bad_interrupt>
      14:	0c 94 19 09 	jmp	0x1232	; 0x1232 <__bad_interrupt>
      18:	0c 94 19 09 	jmp	0x1232	; 0x1232 <__bad_interrupt>
      1c:	0c 94 19 09 	jmp	0x1232	; 0x1232 <__bad_interrupt>
      20:	0c 94 19 09 	jmp	0x1232	; 0x1232 <__bad_interrupt>
      24:	0c 94 19 09 	jmp	0x1232	; 0x1232 <__bad_interrupt>
      28:	0c 94 21 12 	jmp	0x2442	; 0x2442 <__vector_10>
      2c:	0c 94 19 09 	jmp	0x1232	; 0x1232 <__bad_interrupt>
      30:	0c 94 19 09 	jmp	0x1232	; 0x1232 <__bad_interrupt>
      34:	0c 94 36 09 	jmp	0x126c	; 0x126c <__vector_13>
      38:	0c 94 19 09 	jmp	0x1232	; 0x1232 <__bad_interrupt>
      3c:	0c 94 19 09 	jmp	0x1232	; 0x1232 <__bad_interrupt>
      40:	0c 94 19 09 	jmp	0x1232	; 0x1232 <__bad_interrupt>
      44:	0c 94 19 09 	jmp	0x1232	; 0x1232 <__bad_interrupt>
      48:	0c 94 19 09 	jmp	0x1232	; 0x1232 <__bad_interrupt>
      4c:	0c 94 19 09 	jmp	0x1232	; 0x1232 <__bad_interrupt>
      50:	0c 94 19 09 	jmp	0x1232	; 0x1232 <__bad_interrupt>

00000054 <Font1608>:
	...
      68:	00 00 1f cc 00 0c 00 00 00 00 00 00 00 00 08 00     ................
      78:	30 00 60 00 08 00 30 00 60 00 00 00 02 20 03 fc     0.`...0.`.... ..
      88:	1e 20 02 20 03 fc 1e 20 02 20 00 00 00 00 0e 18     . . ... . ......
      98:	11 04 3f ff 10 84 0c 78 00 00 00 00 0f 00 10 84     ..?....x........
      a8:	0f 38 00 c0 07 78 18 84 00 78 00 00 00 78 0f 84     .8...x...x...x..
      b8:	10 c4 11 24 0e 98 00 e4 00 84 00 08 08 00 68 00     ...$..........h.
      c8:	70 00 00 00 00 00 00 00 00 00 00 00 00 00 00 00     p...............
      d8:	00 00 07 e0 18 18 20 04 40 02 00 00 00 00 40 02     ...... .@.....@.
      e8:	20 04 18 18 07 e0 00 00 00 00 00 00 02 40 02 40      ............@.@
      f8:	01 80 0f f0 01 80 02 40 02 40 00 00 00 80 00 80     .......@.@......
     108:	00 80 0f f8 00 80 00 80 00 80 00 00 00 01 00 0d     ................
     118:	00 0e 00 00 00 00 00 00 00 00 00 00 00 00 00 80     ................
     128:	00 80 00 80 00 80 00 80 00 80 00 80 00 00 00 0c     ................
     138:	00 0c 00 00 00 00 00 00 00 00 00 00 00 00 00 06     ................
     148:	00 18 00 60 01 80 06 00 18 00 20 00 00 00 07 f0     ...`...... .....
     158:	08 08 10 04 10 04 08 08 07 f0 00 00 00 00 08 04     ................
     168:	08 04 1f fc 00 04 00 04 00 00 00 00 00 00 0e 0c     ................
     178:	10 14 10 24 10 44 11 84 0e 0c 00 00 00 00 0c 18     ...$.D..........
     188:	10 04 11 04 11 04 12 88 0c 70 00 00 00 00 00 e0     .........p......
     198:	03 20 04 24 08 24 1f fc 00 24 00 00 00 00 1f 98     . .$.$...$......
     1a8:	10 84 11 04 11 04 10 88 10 70 00 00 00 00 07 f0     .........p......
     1b8:	08 88 11 04 11 04 18 88 00 70 00 00 00 00 1c 00     .........p......
     1c8:	10 00 10 fc 13 00 1c 00 10 00 00 00 00 00 0e 38     ...............8
     1d8:	11 44 10 84 10 84 11 44 0e 38 00 00 00 00 07 00     .D.....D.8......
     1e8:	08 8c 10 44 10 44 08 88 07 f0 00 00 00 00 00 00     ...D.D..........
     1f8:	00 00 03 0c 03 0c 00 00 00 00 00 00 00 00 00 00     ................
     208:	00 01 01 06 00 00 00 00 00 00 00 00 00 00 00 80     ................
     218:	01 40 02 20 04 10 08 08 10 04 00 00 02 20 02 20     .@. ......... . 
     228:	02 20 02 20 02 20 02 20 02 20 00 00 00 00 10 04     . . . . . ......
     238:	08 08 04 10 02 20 01 40 00 80 00 00 00 00 0e 00     ..... .@........
     248:	12 00 10 0c 10 6c 10 80 0f 00 00 00 03 e0 0c 18     .....l..........
     258:	13 e4 14 24 17 c4 08 28 07 d0 00 00 00 04 00 3c     ...$...(.......<
     268:	03 c4 1c 40 07 40 00 e4 00 1c 00 04 10 04 1f fc     ...@.@..........
     278:	11 04 11 04 11 04 0e 88 00 70 00 00 03 e0 0c 18     .........p......
     288:	10 04 10 04 10 04 10 08 1c 10 00 00 10 04 1f fc     ................
     298:	10 04 10 04 10 04 08 08 07 f0 00 00 10 04 1f fc     ................
     2a8:	11 04 11 04 17 c4 10 04 08 18 00 00 10 04 1f fc     ................
     2b8:	11 04 11 00 17 c0 10 00 08 00 00 00 03 e0 0c 18     ................
     2c8:	10 04 10 04 10 44 1c 78 00 40 00 00 10 04 1f fc     .....D.x.@......
     2d8:	10 84 00 80 00 80 10 84 1f fc 10 04 00 00 10 04     ................
     2e8:	10 04 1f fc 10 04 10 04 00 00 00 00 00 03 00 01     ................
     2f8:	10 01 10 01 1f fe 10 00 10 00 00 00 10 04 1f fc     ................
     308:	11 04 03 80 14 64 18 1c 10 04 00 00 10 04 1f fc     .....d..........
     318:	10 04 00 04 00 04 00 04 00 0c 00 00 10 04 1f fc     ................
     328:	1f 00 00 fc 1f 00 1f fc 10 04 00 00 10 04 1f fc     ................
     338:	0c 04 03 00 00 e0 10 18 1f fc 10 00 07 f0 08 08     ................
     348:	10 04 10 04 10 04 08 08 07 f0 00 00 10 04 1f fc     ................
     358:	10 84 10 80 10 80 10 80 0f 00 00 00 07 f0 08 18     ................
     368:	10 24 10 24 10 1c 08 0a 07 f2 00 00 10 04 1f fc     .$.$............
     378:	11 04 11 00 11 c0 11 30 0e 0c 00 04 00 00 0e 1c     .......0........
     388:	11 04 10 84 10 84 10 44 1c 38 00 00 18 00 10 00     .......D.8......
     398:	10 04 1f fc 10 04 10 00 18 00 00 00 10 00 1f f8     ................
     3a8:	10 04 00 04 00 04 10 04 1f f8 10 00 10 00 1e 00     ................
     3b8:	11 e0 00 1c 00 70 13 80 1c 00 10 00 1f c0 10 3c     .....p.........<
     3c8:	00 e0 1f 00 00 e0 10 3c 1f c0 00 00 10 04 18 0c     .......<........
     3d8:	16 34 01 c0 01 c0 16 34 18 0c 10 04 10 00 1c 00     .4.....4........
     3e8:	13 04 00 fc 13 04 1c 00 10 00 00 00 08 04 10 1c     ................
     3f8:	10 64 10 84 13 04 1c 04 10 18 00 00 00 00 00 00     .d..............
     408:	00 00 7f fe 40 02 40 02 40 02 00 00 00 00 30 00     ....@.@.@.....0.
     418:	0c 00 03 80 00 60 00 1c 00 03 00 00 00 00 40 02     .....`........@.
     428:	40 02 40 02 7f fe 00 00 00 00 00 00 00 00 00 00     @.@.............
     438:	20 00 40 00 40 00 40 00 20 00 00 00 00 01 00 01      .@.@.@. .......
     448:	00 01 00 01 00 01 00 01 00 01 00 01 00 00 40 00     ..............@.
     458:	40 00 20 00 00 00 00 00 00 00 00 00 00 00 00 98     @. .............
     468:	01 24 01 44 01 44 01 44 00 fc 00 04 10 00 1f fc     .$.D.D.D........
     478:	00 88 01 04 01 04 00 88 00 70 00 00 00 00 00 70     .........p.....p
     488:	00 88 01 04 01 04 01 04 00 88 00 00 00 00 00 70     ...............p
     498:	00 88 01 04 01 04 11 08 1f fc 00 04 00 00 00 f8     ................
     4a8:	01 44 01 44 01 44 01 44 00 c8 00 00 00 00 01 04     .D.D.D.D........
     4b8:	01 04 0f fc 11 04 11 04 11 00 18 00 00 00 00 d6     ................
     4c8:	01 29 01 29 01 29 01 c9 01 06 00 00 10 04 1f fc     .).).)..........
     4d8:	00 84 01 00 01 00 01 04 00 fc 00 04 00 00 01 04     ................
     4e8:	19 04 19 fc 00 04 00 04 00 00 00 00 00 00 00 03     ................
     4f8:	00 01 01 01 19 01 19 fe 00 00 00 00 10 04 1f fc     ................
     508:	00 24 00 40 01 b4 01 0c 01 04 00 00 00 00 10 04     .$.@............
     518:	10 04 1f fc 00 04 00 04 00 00 00 00 01 04 01 fc     ................
     528:	01 04 01 00 01 fc 01 04 01 00 00 fc 01 04 01 fc     ................
     538:	00 84 01 00 01 00 01 04 00 fc 00 04 00 00 00 f8     ................
     548:	01 04 01 04 01 04 01 04 00 f8 00 00 01 01 01 ff     ................
     558:	00 85 01 04 01 04 00 88 00 70 00 00 00 00 00 70     .........p.....p
     568:	00 88 01 04 01 04 01 05 01 ff 00 01 01 04 01 04     ................
     578:	01 fc 00 84 01 04 01 00 01 80 00 00 00 00 00 cc     ................
     588:	01 24 01 24 01 24 01 24 01 98 00 00 00 00 01 00     .$.$.$.$........
     598:	01 00 07 f8 01 04 01 04 00 00 00 00 01 00 01 f8     ................
     5a8:	00 04 00 04 00 04 01 08 01 fc 00 04 01 00 01 80     ................
     5b8:	01 70 00 0c 00 10 01 60 01 80 01 00 01 f0 01 0c     .p.....`........
     5c8:	00 30 01 c0 00 30 01 0c 01 f0 01 00 00 00 01 04     .0...0..........
     5d8:	01 8c 00 74 01 70 01 8c 01 04 00 00 01 01 01 81     ...t.p..........
     5e8:	01 71 00 0e 00 18 01 60 01 80 01 00 00 00 01 84     .q.....`........
     5f8:	01 0c 01 34 01 44 01 84 01 0c 00 00 00 00 00 00     ...4.D..........
     608:	00 00 00 00 01 00 3e fc 40 02 40 02 00 00 00 00     ......>.@.@.....
     618:	00 00 00 00 ff ff 00 00 00 00 00 00 00 00 3f fe     ..............?.
     628:	33 e6 61 e6 61 e6 33 e6 3f fe 00 00 00 00 18 00     3.a.a.3.?.......
     638:	24 00 42 00 42 00 24 00 18 00 00 00                 $.B.B.$.....

00000644 <Font1206>:
	...
     654:	3f 40 00 00 00 00 00 00 00 00 30 00 40 00 30 00     ?@........0.@.0.
     664:	40 00 00 00 09 00 0b c0 3d 00 0b c0 3d 00 09 00     @.......=...=...
     674:	18 c0 24 40 7f e0 22 40 31 80 00 00 18 00 24 c0     ..$@.."@1.....$.
     684:	1b 00 0d 80 32 40 01 80 03 80 1c 40 27 40 1c 80     ....2@.....@'@..
     694:	07 40 00 40 10 00 60 00 00 00 00 00 00 00 00 00     .@.@..`.........
     6a4:	00 00 00 00 00 00 1f 80 20 40 40 20 00 00 40 20     ........ @@ ..@ 
     6b4:	20 40 1f 80 00 00 00 00 09 00 06 00 1f 80 06 00      @..............
     6c4:	09 00 00 00 04 00 04 00 3f 80 04 00 04 00 00 00     ........?.......
     6d4:	00 10 00 60 00 00 00 00 00 00 00 00 04 00 04 00     ...`............
     6e4:	04 00 04 00 04 00 00 00 00 00 00 40 00 00 00 00     ...........@....
     6f4:	00 00 00 00 00 20 01 c0 06 00 38 00 40 00 00 00     ..... ....8.@...
     704:	1f 80 20 40 20 40 20 40 1f 80 00 00 00 00 10 40     .. @ @ @.......@
     714:	3f c0 00 40 00 00 00 00 18 c0 21 40 22 40 24 40     ?..@......!@"@$@
     724:	18 40 00 00 10 80 20 40 24 40 24 40 1b 80 00 00     .@.... @$@$@....
     734:	02 00 0d 00 11 00 3f c0 01 40 00 00 3c 80 24 40     ......?..@..<.$@
     744:	24 40 24 40 23 80 00 00 1f 80 24 40 24 40 34 40     $@$@#.....$@$@4@
     754:	03 80 00 00 30 00 20 00 27 c0 38 00 20 00 00 00     ....0. .'.8. ...
     764:	1b 80 24 40 24 40 24 40 1b 80 00 00 1c 00 22 c0     ..$@$@$@......".
     774:	22 40 22 40 1f 80 00 00 00 00 00 00 08 40 00 00     "@"@.........@..
	...
     78c:	04 60 00 00 00 00 00 00 00 00 04 00 0a 00 11 00     .`..............
     79c:	20 80 40 40 09 00 09 00 09 00 09 00 09 00 00 00      .@@............
     7ac:	00 00 40 40 20 80 11 00 0a 00 04 00 18 00 20 00     ..@@ ......... .
     7bc:	23 40 24 00 18 00 00 00 1f 80 20 40 27 40 29 40     #@$....... @'@)@
     7cc:	1f 40 00 00 00 40 07 c0 39 00 0f 00 01 c0 00 40     .@...@..9......@
     7dc:	20 40 3f c0 24 40 24 40 1b 80 00 00 1f 80 20 40      @?.$@$@...... @
     7ec:	20 40 20 40 30 80 00 00 20 40 3f c0 20 40 20 40      @ @0... @?. @ @
     7fc:	1f 80 00 00 20 40 3f c0 24 40 2e 40 30 c0 00 00     .... @?.$@.@0...
     80c:	20 40 3f c0 24 40 2e 00 30 00 00 00 0f 00 10 80      @?.$@..0.......
     81c:	20 40 22 40 33 80 02 00 20 40 3f c0 04 00 04 00      @"@3... @?.....
     82c:	3f c0 20 40 20 40 20 40 3f c0 20 40 20 40 00 00     ?. @ @ @?. @ @..
     83c:	00 60 20 20 20 20 3f c0 20 00 20 00 20 40 3f c0     .`    ?. . . @?.
     84c:	24 40 0b 00 30 c0 20 40 20 40 3f c0 20 40 00 40     $@..0. @ @?. @.@
     85c:	00 40 00 c0 3f c0 3c 00 03 c0 3c 00 3f c0 00 00     .@..?.<...<.?...
     86c:	20 40 3f c0 0c 40 23 00 3f c0 20 00 1f 80 20 40      @?..@#.?. ... @
     87c:	20 40 20 40 1f 80 00 00 20 40 3f c0 24 40 24 00      @ @.... @?.$@$.
     88c:	18 00 00 00 1f 80 21 40 21 40 20 e0 1f a0 00 00     ......!@!@ .....
     89c:	20 40 3f c0 24 40 26 00 19 c0 00 40 18 c0 24 40      @?.$@&....@..$@
     8ac:	24 40 22 40 31 80 00 00 30 00 20 40 3f c0 20 40     $@"@1...0. @?. @
     8bc:	30 00 00 00 20 00 3f 80 00 40 00 40 3f 80 20 00     0... .?..@.@?. .
     8cc:	20 00 3e 00 01 c0 07 00 38 00 20 00 38 00 07 c0      .>.....8. .8...
     8dc:	3c 00 07 c0 38 00 00 00 20 40 39 c0 06 00 39 c0     <...8... @9...9.
     8ec:	20 40 00 00 20 00 38 40 07 c0 38 40 20 00 00 00      @.. .8@..8@ ...
     8fc:	30 40 21 c0 26 40 38 40 20 c0 00 00 00 00 00 00     0@!.&@8@ .......
     90c:	7f e0 40 20 40 20 00 00 00 00 70 00 0c 00 03 80     ..@ @ ....p.....
     91c:	00 40 00 00 00 00 40 20 40 20 7f e0 00 00 00 00     .@....@ @ ......
     92c:	00 00 20 00 40 00 20 00 00 00 00 00 00 10 00 10     .. .@. .........
     93c:	00 10 00 10 00 10 00 10 00 00 00 00 40 00 00 00     ............@...
     94c:	00 00 00 00 00 00 02 80 05 40 05 40 03 c0 00 40     .........@.@...@
     95c:	20 00 3f c0 04 40 04 40 03 80 00 00 00 00 03 80      .?..@.@........
     96c:	04 40 04 40 06 40 00 00 00 00 03 80 04 40 24 40     .@.@.@.......@$@
     97c:	3f c0 00 40 00 00 03 80 05 40 05 40 03 40 00 00     ?..@.....@.@.@..
     98c:	00 00 04 40 1f c0 24 40 24 40 20 00 00 00 02 e0     ...@..$@$@ .....
     99c:	05 50 05 50 06 50 04 20 20 40 3f c0 04 40 04 00     .P.P.P.  @?..@..
     9ac:	03 c0 00 40 00 00 04 40 27 c0 00 40 00 00 00 00     ...@...@'..@....
     9bc:	00 10 00 10 04 10 27 e0 00 00 00 00 20 40 3f c0     ......'..... @?.
     9cc:	01 40 07 00 04 c0 04 40 20 40 20 40 3f c0 00 40     .@.....@ @ @?..@
     9dc:	00 40 00 00 07 c0 04 00 07 c0 04 00 03 c0 00 00     .@..............
     9ec:	04 40 07 c0 04 40 04 00 03 c0 00 40 00 00 03 80     .@...@.....@....
     9fc:	04 40 04 40 03 80 00 00 04 10 07 f0 04 50 04 40     .@.@.........P.@
     a0c:	03 80 00 00 00 00 03 80 04 40 04 50 07 f0 00 10     .........@.P....
     a1c:	04 40 07 c0 02 40 04 00 04 00 00 00 00 00 06 40     .@...@.........@
     a2c:	05 40 05 40 04 c0 00 00 00 00 04 00 1f 80 04 40     .@.@...........@
     a3c:	00 40 00 00 04 00 07 80 00 40 04 40 07 c0 00 40     .@.......@.@...@
     a4c:	04 00 07 00 04 c0 01 80 06 00 04 00 06 00 01 c0     ................
     a5c:	07 00 01 c0 06 00 00 00 04 40 06 c0 01 00 06 c0     .........@......
     a6c:	04 40 00 00 04 10 07 10 04 e0 01 80 06 00 04 00     .@..............
     a7c:	00 00 04 40 05 c0 06 40 04 40 00 00 00 00 00 00     ...@...@.@......
     a8c:	04 00 7b e0 40 20 00 00 00 00 00 00 00 00 ff f0     ..{.@ ..........
     a9c:	00 00 00 00 00 00 40 20 7b e0 04 00 00 00 00 00     ......@ {.......
     aac:	00 00 00 0c 20 01 12 c0 00 00 00 00                 .... .......

00000ab8 <Font3216>:
	...
     ae0:	00 00 00 1e 00 00 00 1e 00 00 00 1e 00 00 00 1e     ................
	...
     b00:	3f ff ff fc 3f ff ff fc 30 00 00 0c 30 00 00 0c     ?...?...0...0...
     b10:	30 00 00 0c 30 00 00 0c 30 00 00 0c 30 00 00 0c     0...0...0...0...
     b20:	30 00 00 0c 30 00 00 0c 3f ff ff fc 3f ff ff fc     0...0...?...?...
	...
     b40:	3f ff ff fc 3f ff ff fc 30 00 00 0c 30 00 00 0c     ?...?...0...0...
     b50:	30 00 00 0c 30 00 00 0c 30 00 00 0c 30 00 00 0c     0...0...0...0...
     b60:	30 00 00 0c 30 00 00 0c 3f ff ff fc 3f ff ff fc     0...0...?...?...
	...
     b90:	30 00 00 00 30 00 00 00 3f ff ff fc 3f ff ff fc     0...0...?...?...
	...
     bc0:	3c 01 ff fc 3c 01 ff fc 30 01 80 0c 30 01 80 0c     <...<...0...0...
     bd0:	30 01 80 0c 30 01 80 0c 30 01 80 0c 30 01 80 0c     0...0...0...0...
     be0:	30 01 80 0c 30 01 80 0c 3f ff 80 0c 3f ff 80 0c     0...0...?...?...
	...
     c00:	38 00 00 3c 38 00 00 3c 30 01 80 0c 30 01 80 0c     8..<8..<0...0...
     c10:	30 01 80 0c 30 01 80 0c 30 01 80 0c 30 01 80 0c     0...0...0...0...
     c20:	30 01 80 0c 30 01 80 0c 3f ff ff fc 3f ff ff fc     0...0...?...?...
	...
     c40:	3f ff 80 00 3f ff 80 00 00 01 80 00 00 01 80 00     ?...?...........
     c50:	00 01 80 00 00 01 80 00 00 01 80 00 00 01 80 00     ................
     c60:	00 01 80 00 00 01 80 00 3f ff ff fc 3f ff ff fc     ........?...?...
	...
     c80:	3f ff 80 3c 3f ff 80 3c 30 01 80 0c 30 01 80 0c     ?..<?..<0...0...
     c90:	30 01 80 0c 30 01 80 0c 30 01 80 0c 30 01 80 0c     0...0...0...0...
     ca0:	30 01 80 0c 30 01 80 0c 30 01 ff fc 30 01 ff fc     0...0...0...0...
	...
     cc0:	3f ff ff fc 3f ff ff fc 30 01 80 0c 30 01 80 0c     ?...?...0...0...
     cd0:	30 01 80 0c 30 01 80 0c 30 01 80 0c 30 01 80 0c     0...0...0...0...
     ce0:	30 01 80 0c 30 01 80 0c 3c 01 ff fc 3c 01 ff fc     0...0...<...<...
	...
     d00:	3c 00 00 00 3c 00 00 00 30 00 00 00 30 00 00 00     <...<...0...0...
     d10:	30 00 00 00 30 00 00 00 30 00 00 00 30 00 00 00     0...0...0...0...
     d20:	30 00 00 00 30 00 00 00 3f ff ff fc 3f ff ff fc     0...0...?...?...
	...
     d40:	3f ff ff fc 3f ff ff fc 30 01 80 0c 30 01 80 0c     ?...?...0...0...
     d50:	30 01 80 0c 30 01 80 0c 30 01 80 0c 30 01 80 0c     0...0...0...0...
     d60:	30 01 80 0c 30 01 80 0c 3f ff ff fc 3f ff ff fc     0...0...?...?...
	...
     d80:	3f ff 80 3c 3f ff 80 3c 30 01 80 0c 30 01 80 0c     ?..<?..<0...0...
     d90:	30 01 80 0c 30 01 80 0c 30 01 80 0c 30 01 80 0c     0...0...0...0...
     da0:	30 01 80 0c 30 01 80 0c 3f ff ff fc 3f ff ff fc     0...0...?...?...
	...
     dd4:	3c 3c 00 00 3c 3c 00 00 3c 3c 00 00 3c 3c 00 00     <<..<<..<<..<<..
	...

00000df8 <bitmap_1>:
	...
     f18:	00 00 fc 00 00 00 00 00 08 00 00 00 00 00 00 00     ................
     f28:	00 03 02 00 00 00 00 00 08 00 00 00 00 00 00 00     ................
     f38:	00 02 00 00 00 00 00 00 08 00 00 00 00 00 00 00     ................
     f48:	00 04 00 bc 3c 03 c8 27 9f 38 5c e0 00 00 00 00     ....<..'.8\.....
     f58:	00 04 00 c2 42 04 28 28 48 44 63 10 00 00 00 00     ....B.((HDc.....
     f68:	00 04 00 81 40 04 04 48 08 82 42 10 00 00 00 00     ....@..H..B.....
     f78:	00 04 3e 81 40 04 04 48 08 82 42 10 00 00 00 00     ..>.@..H..B.....
     f88:	00 04 02 81 3c 03 c4 47 88 fe 42 10 00 00 00 00     ....<..G..B.....
     f98:	00 04 02 81 02 00 22 80 48 80 42 10 00 00 00 00     ......".H.B.....
     fa8:	00 02 02 81 02 00 22 80 48 80 42 10 00 00 00 00     ......".H.B.....
     fb8:	00 03 02 82 42 04 21 08 48 42 42 10 00 00 00 00     ....B.!.HBB.....
     fc8:	00 00 fc fc 3c 03 c1 07 87 3c 42 10 00 00 00 00     ....<....<B.....
     fd8:	00 00 00 80 00 00 02 00 00 00 00 00 00 00 00 00     ................
     fe8:	00 00 00 80 00 00 02 00 00 00 00 00 00 00 00 00     ................
     ff8:	00 00 00 80 00 00 02 00 00 00 00 00 00 00 00 00     ................
	...

000011f8 <__ctors_end>:
    11f8:	11 24       	eor	r1, r1
    11fa:	1f be       	out	0x3f, r1	; 63
    11fc:	cf e5       	ldi	r28, 0x5F	; 95
    11fe:	d8 e0       	ldi	r29, 0x08	; 8
    1200:	de bf       	out	0x3e, r29	; 62
    1202:	cd bf       	out	0x3d, r28	; 61

00001204 <__do_copy_data>:
    1204:	10 e0       	ldi	r17, 0x00	; 0
    1206:	a0 e6       	ldi	r26, 0x60	; 96
    1208:	b0 e0       	ldi	r27, 0x00	; 0
    120a:	e8 e7       	ldi	r30, 0x78	; 120
    120c:	fa e2       	ldi	r31, 0x2A	; 42
    120e:	02 c0       	rjmp	.+4      	; 0x1214 <__do_copy_data+0x10>
    1210:	05 90       	lpm	r0, Z+
    1212:	0d 92       	st	X+, r0
    1214:	ae 3d       	cpi	r26, 0xDE	; 222
    1216:	b1 07       	cpc	r27, r17
    1218:	d9 f7       	brne	.-10     	; 0x1210 <__do_copy_data+0xc>

0000121a <__do_clear_bss>:
    121a:	27 e0       	ldi	r18, 0x07	; 7
    121c:	ae ed       	ldi	r26, 0xDE	; 222
    121e:	b0 e0       	ldi	r27, 0x00	; 0
    1220:	01 c0       	rjmp	.+2      	; 0x1224 <.do_clear_bss_start>

00001222 <.do_clear_bss_loop>:
    1222:	1d 92       	st	X+, r1

00001224 <.do_clear_bss_start>:
    1224:	af 30       	cpi	r26, 0x0F	; 15
    1226:	b2 07       	cpc	r27, r18
    1228:	e1 f7       	brne	.-8      	; 0x1222 <.do_clear_bss_loop>
    122a:	0e 94 56 11 	call	0x22ac	; 0x22ac <main>
    122e:	0c 94 3a 15 	jmp	0x2a74	; 0x2a74 <_exit>

00001232 <__bad_interrupt>:
    1232:	0c 94 00 00 	jmp	0	; 0x0 <__vectors>

00001236 <USART_Init>:
    1236:	90 bd       	out	0x20, r25	; 32
    1238:	89 b9       	out	0x09, r24	; 9
    123a:	80 e9       	ldi	r24, 0x90	; 144
    123c:	8a b9       	out	0x0a, r24	; 10
    123e:	86 e8       	ldi	r24, 0x86	; 134
    1240:	80 bd       	out	0x20, r24	; 32
    1242:	08 95       	ret

00001244 <uart_getc>:
    1244:	90 91 61 01 	lds	r25, 0x0161
    1248:	80 91 62 01 	lds	r24, 0x0162
    124c:	98 17       	cp	r25, r24
    124e:	61 f0       	breq	.+24     	; 0x1268 <uart_getc+0x24>
    1250:	80 91 62 01 	lds	r24, 0x0162
    1254:	8f 5f       	subi	r24, 0xFF	; 255
    1256:	80 93 62 01 	sts	0x0162, r24
    125a:	e0 91 62 01 	lds	r30, 0x0162
    125e:	f0 e0       	ldi	r31, 0x00	; 0
    1260:	ed 59       	subi	r30, 0x9D	; 157
    1262:	fe 4f       	sbci	r31, 0xFE	; 254
    1264:	80 81       	ld	r24, Z
    1266:	08 95       	ret
    1268:	80 e0       	ldi	r24, 0x00	; 0
    126a:	08 95       	ret

0000126c <__vector_13>:
    126c:	1f 92       	push	r1
    126e:	0f 92       	push	r0
    1270:	0f b6       	in	r0, 0x3f	; 63
    1272:	0f 92       	push	r0
    1274:	11 24       	eor	r1, r1
    1276:	8f 93       	push	r24
    1278:	9f 93       	push	r25
    127a:	ef 93       	push	r30
    127c:	ff 93       	push	r31
    127e:	9c b1       	in	r25, 0x0c	; 12
    1280:	9a 30       	cpi	r25, 0x0A	; 10
    1282:	29 f4       	brne	.+10     	; 0x128e <__vector_13+0x22>
    1284:	80 91 60 01 	lds	r24, 0x0160
    1288:	8f 5f       	subi	r24, 0xFF	; 255
    128a:	80 93 60 01 	sts	0x0160, r24
    128e:	e0 91 61 01 	lds	r30, 0x0161
    1292:	ef 5f       	subi	r30, 0xFF	; 255
    1294:	80 91 62 01 	lds	r24, 0x0162
    1298:	e8 17       	cp	r30, r24
    129a:	31 f0       	breq	.+12     	; 0x12a8 <__vector_13+0x3c>
    129c:	e0 93 61 01 	sts	0x0161, r30
    12a0:	f0 e0       	ldi	r31, 0x00	; 0
    12a2:	ed 59       	subi	r30, 0x9D	; 157
    12a4:	fe 4f       	sbci	r31, 0xFE	; 254
    12a6:	90 83       	st	Z, r25
    12a8:	ff 91       	pop	r31
    12aa:	ef 91       	pop	r30
    12ac:	9f 91       	pop	r25
    12ae:	8f 91       	pop	r24
    12b0:	0f 90       	pop	r0
    12b2:	0f be       	out	0x3f, r0	; 63
    12b4:	0f 90       	pop	r0
    12b6:	1f 90       	pop	r1
    12b8:	18 95       	reti

000012ba <SPIwrite>:
    12ba:	28 e0       	ldi	r18, 0x08	; 8
    12bc:	30 e0       	ldi	r19, 0x00	; 0
    12be:	90 e8       	ldi	r25, 0x80	; 128
    12c0:	94 98       	cbi	0x12, 4	; 18
    12c2:	49 2f       	mov	r20, r25
    12c4:	48 23       	and	r20, r24
    12c6:	11 f0       	breq	.+4      	; 0x12cc <SPIwrite+0x12>
    12c8:	93 9a       	sbi	0x12, 3	; 18
    12ca:	01 c0       	rjmp	.+2      	; 0x12ce <SPIwrite+0x14>
    12cc:	93 98       	cbi	0x12, 3	; 18
    12ce:	94 9a       	sbi	0x12, 4	; 18
    12d0:	96 95       	lsr	r25
    12d2:	21 50       	subi	r18, 0x01	; 1
    12d4:	31 09       	sbc	r19, r1
    12d6:	a1 f7       	brne	.-24     	; 0x12c0 <SPIwrite+0x6>
    12d8:	08 95       	ret

000012da <SH1106_command>:
    12da:	95 9a       	sbi	0x12, 5	; 18
    12dc:	96 98       	cbi	0x12, 6	; 18
    12de:	95 98       	cbi	0x12, 5	; 18
    12e0:	0e 94 5d 09 	call	0x12ba	; 0x12ba <SPIwrite>
    12e4:	95 9a       	sbi	0x12, 5	; 18
    12e6:	08 95       	ret

000012e8 <sh1106_data>:
    12e8:	95 9a       	sbi	0x12, 5	; 18
    12ea:	96 9a       	sbi	0x12, 6	; 18
    12ec:	95 98       	cbi	0x12, 5	; 18
    12ee:	0e 94 5d 09 	call	0x12ba	; 0x12ba <SPIwrite>
    12f2:	95 9a       	sbi	0x12, 5	; 18
    12f4:	08 95       	ret

000012f6 <sh1106_begin_spi>:
    12f6:	8b 9a       	sbi	0x11, 3	; 17
    12f8:	8c 9a       	sbi	0x11, 4	; 17
    12fa:	94 9a       	sbi	0x12, 4	; 18
    12fc:	8f 9a       	sbi	0x11, 7	; 17
    12fe:	97 9a       	sbi	0x12, 7	; 18
    1300:	8e 9a       	sbi	0x11, 6	; 17
    1302:	8d 9a       	sbi	0x11, 5	; 17
    1304:	8d 9a       	sbi	0x11, 5	; 17
    1306:	08 95       	ret

00001308 <sh1106_begin>:
    1308:	0e 94 7b 09 	call	0x12f6	; 0x12f6 <sh1106_begin_spi>
    130c:	97 9a       	sbi	0x12, 7	; 18
    130e:	8f ef       	ldi	r24, 0xFF	; 255
    1310:	93 eb       	ldi	r25, 0xB3	; 179
    1312:	01 97       	sbiw	r24, 0x01	; 1
    1314:	f1 f7       	brne	.-4      	; 0x1312 <sh1106_begin+0xa>
    1316:	00 c0       	rjmp	.+0      	; 0x1318 <sh1106_begin+0x10>
    1318:	00 00       	nop
    131a:	97 98       	cbi	0x12, 7	; 18
    131c:	8f ef       	ldi	r24, 0xFF	; 255
    131e:	93 eb       	ldi	r25, 0xB3	; 179
    1320:	01 97       	sbiw	r24, 0x01	; 1
    1322:	f1 f7       	brne	.-4      	; 0x1320 <sh1106_begin+0x18>
    1324:	00 c0       	rjmp	.+0      	; 0x1326 <sh1106_begin+0x1e>
    1326:	00 00       	nop
    1328:	97 9a       	sbi	0x12, 7	; 18
    132a:	8e ea       	ldi	r24, 0xAE	; 174
    132c:	0e 94 6d 09 	call	0x12da	; 0x12da <SH1106_command>
    1330:	85 ed       	ldi	r24, 0xD5	; 213
    1332:	0e 94 6d 09 	call	0x12da	; 0x12da <SH1106_command>
    1336:	80 e8       	ldi	r24, 0x80	; 128
    1338:	0e 94 6d 09 	call	0x12da	; 0x12da <SH1106_command>
    133c:	88 ea       	ldi	r24, 0xA8	; 168
    133e:	0e 94 6d 09 	call	0x12da	; 0x12da <SH1106_command>
    1342:	8f e3       	ldi	r24, 0x3F	; 63
    1344:	0e 94 6d 09 	call	0x12da	; 0x12da <SH1106_command>
    1348:	83 ed       	ldi	r24, 0xD3	; 211
    134a:	0e 94 6d 09 	call	0x12da	; 0x12da <SH1106_command>
    134e:	80 e0       	ldi	r24, 0x00	; 0
    1350:	0e 94 6d 09 	call	0x12da	; 0x12da <SH1106_command>
    1354:	80 e4       	ldi	r24, 0x40	; 64
    1356:	0e 94 6d 09 	call	0x12da	; 0x12da <SH1106_command>
    135a:	8d e8       	ldi	r24, 0x8D	; 141
    135c:	0e 94 6d 09 	call	0x12da	; 0x12da <SH1106_command>
    1360:	84 e1       	ldi	r24, 0x14	; 20
    1362:	0e 94 6d 09 	call	0x12da	; 0x12da <SH1106_command>
    1366:	80 e2       	ldi	r24, 0x20	; 32
    1368:	0e 94 6d 09 	call	0x12da	; 0x12da <SH1106_command>
    136c:	80 e0       	ldi	r24, 0x00	; 0
    136e:	0e 94 6d 09 	call	0x12da	; 0x12da <SH1106_command>
    1372:	81 ea       	ldi	r24, 0xA1	; 161
    1374:	0e 94 6d 09 	call	0x12da	; 0x12da <SH1106_command>
    1378:	88 ec       	ldi	r24, 0xC8	; 200
    137a:	0e 94 6d 09 	call	0x12da	; 0x12da <SH1106_command>
    137e:	8a ed       	ldi	r24, 0xDA	; 218
    1380:	0e 94 6d 09 	call	0x12da	; 0x12da <SH1106_command>
    1384:	82 e1       	ldi	r24, 0x12	; 18
    1386:	0e 94 6d 09 	call	0x12da	; 0x12da <SH1106_command>
    138a:	81 e8       	ldi	r24, 0x81	; 129
    138c:	0e 94 6d 09 	call	0x12da	; 0x12da <SH1106_command>
    1390:	8f ec       	ldi	r24, 0xCF	; 207
    1392:	0e 94 6d 09 	call	0x12da	; 0x12da <SH1106_command>
    1396:	89 ed       	ldi	r24, 0xD9	; 217
    1398:	0e 94 6d 09 	call	0x12da	; 0x12da <SH1106_command>
    139c:	81 ef       	ldi	r24, 0xF1	; 241
    139e:	0e 94 6d 09 	call	0x12da	; 0x12da <SH1106_command>
    13a2:	8b ed       	ldi	r24, 0xDB	; 219
    13a4:	0e 94 6d 09 	call	0x12da	; 0x12da <SH1106_command>
    13a8:	80 e4       	ldi	r24, 0x40	; 64
    13aa:	0e 94 6d 09 	call	0x12da	; 0x12da <SH1106_command>
    13ae:	84 ea       	ldi	r24, 0xA4	; 164
    13b0:	0e 94 6d 09 	call	0x12da	; 0x12da <SH1106_command>
    13b4:	86 ea       	ldi	r24, 0xA6	; 166
    13b6:	0e 94 6d 09 	call	0x12da	; 0x12da <SH1106_command>
    13ba:	8f ea       	ldi	r24, 0xAF	; 175
    13bc:	0c 94 6d 09 	jmp	0x12da	; 0x12da <SH1106_command>

000013c0 <sh1106_clear>:
    13c0:	fc 01       	movw	r30, r24
    13c2:	80 e0       	ldi	r24, 0x00	; 0
    13c4:	90 e0       	ldi	r25, 0x00	; 0
    13c6:	11 92       	st	Z+, r1
    13c8:	01 96       	adiw	r24, 0x01	; 1
    13ca:	81 15       	cp	r24, r1
    13cc:	24 e0       	ldi	r18, 0x04	; 4
    13ce:	92 07       	cpc	r25, r18
    13d0:	d1 f7       	brne	.-12     	; 0x13c6 <sh1106_clear+0x6>
    13d2:	08 95       	ret

000013d4 <sh1106_pixel_mirek>:
    13d4:	80 38       	cpi	r24, 0x80	; 128
    13d6:	91 05       	cpc	r25, r1
    13d8:	30 f5       	brcc	.+76     	; 0x1426 <sh1106_pixel_mirek+0x52>
    13da:	77 fd       	sbrc	r23, 7
    13dc:	24 c0       	rjmp	.+72     	; 0x1426 <sh1106_pixel_mirek+0x52>
    13de:	60 34       	cpi	r22, 0x40	; 64
    13e0:	71 05       	cpc	r23, r1
    13e2:	0c f5       	brge	.+66     	; 0x1426 <sh1106_pixel_mirek+0x52>
    13e4:	fb 01       	movw	r30, r22
    13e6:	53 e0       	ldi	r21, 0x03	; 3
    13e8:	f5 95       	asr	r31
    13ea:	e7 95       	ror	r30
    13ec:	5a 95       	dec	r21
    13ee:	e1 f7       	brne	.-8      	; 0x13e8 <sh1106_pixel_mirek+0x14>
    13f0:	67 70       	andi	r22, 0x07	; 7
    13f2:	77 27       	eor	r23, r23
    13f4:	f6 95       	lsr	r31
    13f6:	fe 2f       	mov	r31, r30
    13f8:	ee 27       	eor	r30, r30
    13fa:	f7 95       	ror	r31
    13fc:	e7 95       	ror	r30
    13fe:	e8 0f       	add	r30, r24
    1400:	f9 1f       	adc	r31, r25
    1402:	e2 0f       	add	r30, r18
    1404:	f3 1f       	adc	r31, r19
    1406:	81 e0       	ldi	r24, 0x01	; 1
    1408:	90 e0       	ldi	r25, 0x00	; 0
    140a:	06 2e       	mov	r0, r22
    140c:	01 c0       	rjmp	.+2      	; 0x1410 <sh1106_pixel_mirek+0x3c>
    140e:	88 0f       	add	r24, r24
    1410:	0a 94       	dec	r0
    1412:	ea f7       	brpl	.-6      	; 0x140e <sh1106_pixel_mirek+0x3a>
    1414:	44 23       	and	r20, r20
    1416:	19 f0       	breq	.+6      	; 0x141e <sh1106_pixel_mirek+0x4a>
    1418:	90 81       	ld	r25, Z
    141a:	98 2b       	or	r25, r24
    141c:	03 c0       	rjmp	.+6      	; 0x1424 <sh1106_pixel_mirek+0x50>
    141e:	80 95       	com	r24
    1420:	90 81       	ld	r25, Z
    1422:	98 23       	and	r25, r24
    1424:	90 83       	st	Z, r25
    1426:	08 95       	ret

00001428 <display_ada>:
    1428:	9f 92       	push	r9
    142a:	af 92       	push	r10
    142c:	bf 92       	push	r11
    142e:	cf 92       	push	r12
    1430:	df 92       	push	r13
    1432:	ef 92       	push	r14
    1434:	ff 92       	push	r15
    1436:	0f 93       	push	r16
    1438:	1f 93       	push	r17
    143a:	cf 93       	push	r28
    143c:	df 93       	push	r29
    143e:	80 e0       	ldi	r24, 0x00	; 0
    1440:	0e 94 6d 09 	call	0x12da	; 0x12da <SH1106_command>
    1444:	80 e1       	ldi	r24, 0x10	; 16
    1446:	0e 94 6d 09 	call	0x12da	; 0x12da <SH1106_command>
    144a:	80 e4       	ldi	r24, 0x40	; 64
    144c:	0e 94 6d 09 	call	0x12da	; 0x12da <SH1106_command>
    1450:	f0 eb       	ldi	r31, 0xB0	; 176
    1452:	9f 2e       	mov	r9, r31
    1454:	e1 2c       	mov	r14, r1
    1456:	f1 2c       	mov	r15, r1
    1458:	89 2d       	mov	r24, r9
    145a:	0e 94 6d 09 	call	0x12da	; 0x12da <SH1106_command>
    145e:	82 e0       	ldi	r24, 0x02	; 2
    1460:	0e 94 6d 09 	call	0x12da	; 0x12da <SH1106_command>
    1464:	80 e1       	ldi	r24, 0x10	; 16
    1466:	0e 94 6d 09 	call	0x12da	; 0x12da <SH1106_command>
    146a:	c0 e0       	ldi	r28, 0x00	; 0
    146c:	d0 e0       	ldi	r29, 0x00	; 0
    146e:	e3 e6       	ldi	r30, 0x63	; 99
    1470:	ce 2e       	mov	r12, r30
    1472:	e2 e0       	ldi	r30, 0x02	; 2
    1474:	de 2e       	mov	r13, r30
    1476:	ce 0c       	add	r12, r14
    1478:	df 1c       	adc	r13, r15
    147a:	95 9a       	sbi	0x12, 5	; 18
    147c:	96 9a       	sbi	0x12, 6	; 18
    147e:	95 98       	cbi	0x12, 5	; 18
    1480:	00 e0       	ldi	r16, 0x00	; 0
    1482:	10 e0       	ldi	r17, 0x00	; 0
    1484:	56 01       	movw	r10, r12
    1486:	ac 0e       	add	r10, r28
    1488:	bd 1e       	adc	r11, r29
    148a:	f5 01       	movw	r30, r10
    148c:	e0 0f       	add	r30, r16
    148e:	f1 1f       	adc	r31, r17
    1490:	80 81       	ld	r24, Z
    1492:	0e 94 5d 09 	call	0x12ba	; 0x12ba <SPIwrite>
    1496:	0f 5f       	subi	r16, 0xFF	; 255
    1498:	1f 4f       	sbci	r17, 0xFF	; 255
    149a:	00 31       	cpi	r16, 0x10	; 16
    149c:	11 05       	cpc	r17, r1
    149e:	a9 f7       	brne	.-22     	; 0x148a <display_ada+0x62>
    14a0:	95 9a       	sbi	0x12, 5	; 18
    14a2:	60 96       	adiw	r28, 0x10	; 16
    14a4:	c0 38       	cpi	r28, 0x80	; 128
    14a6:	d1 05       	cpc	r29, r1
    14a8:	41 f7       	brne	.-48     	; 0x147a <display_ada+0x52>
    14aa:	80 e8       	ldi	r24, 0x80	; 128
    14ac:	e8 0e       	add	r14, r24
    14ae:	f1 1c       	adc	r15, r1
    14b0:	93 94       	inc	r9
    14b2:	88 eb       	ldi	r24, 0xB8	; 184
    14b4:	98 12       	cpse	r9, r24
    14b6:	d0 cf       	rjmp	.-96     	; 0x1458 <display_ada+0x30>
    14b8:	df 91       	pop	r29
    14ba:	cf 91       	pop	r28
    14bc:	1f 91       	pop	r17
    14be:	0f 91       	pop	r16
    14c0:	ff 90       	pop	r15
    14c2:	ef 90       	pop	r14
    14c4:	df 90       	pop	r13
    14c6:	cf 90       	pop	r12
    14c8:	bf 90       	pop	r11
    14ca:	af 90       	pop	r10
    14cc:	9f 90       	pop	r9
    14ce:	08 95       	ret

000014d0 <bitmap>:
    14d0:	2f 92       	push	r2
    14d2:	3f 92       	push	r3
    14d4:	4f 92       	push	r4
    14d6:	5f 92       	push	r5
    14d8:	6f 92       	push	r6
    14da:	7f 92       	push	r7
    14dc:	8f 92       	push	r8
    14de:	9f 92       	push	r9
    14e0:	af 92       	push	r10
    14e2:	bf 92       	push	r11
    14e4:	cf 92       	push	r12
    14e6:	df 92       	push	r13
    14e8:	ef 92       	push	r14
    14ea:	ff 92       	push	r15
    14ec:	0f 93       	push	r16
    14ee:	1f 93       	push	r17
    14f0:	cf 93       	push	r28
    14f2:	df 93       	push	r29
    14f4:	00 d0       	rcall	.+0      	; 0x14f6 <bitmap+0x26>
    14f6:	00 d0       	rcall	.+0      	; 0x14f8 <bitmap+0x28>
    14f8:	cd b7       	in	r28, 0x3d	; 61
    14fa:	de b7       	in	r29, 0x3e	; 62
    14fc:	4a 01       	movw	r8, r20
    14fe:	52 2e       	mov	r5, r18
    1500:	40 2e       	mov	r4, r16
    1502:	30 e0       	ldi	r19, 0x00	; 0
    1504:	29 5f       	subi	r18, 0xF9	; 249
    1506:	3f 4f       	sbci	r19, 0xFF	; 255
    1508:	a3 e0       	ldi	r26, 0x03	; 3
    150a:	35 95       	asr	r19
    150c:	27 95       	ror	r18
    150e:	aa 95       	dec	r26
    1510:	e1 f7       	brne	.-8      	; 0x150a <bitmap+0x3a>
    1512:	3c 83       	std	Y+4, r19	; 0x04
    1514:	2b 83       	std	Y+3, r18	; 0x03
    1516:	a1 2c       	mov	r10, r1
    1518:	b1 2c       	mov	r11, r1
    151a:	c1 2c       	mov	r12, r1
    151c:	d1 2c       	mov	r13, r1
    151e:	e6 2f       	mov	r30, r22
    1520:	f0 e0       	ldi	r31, 0x00	; 0
    1522:	fa 83       	std	Y+2, r31	; 0x02
    1524:	e9 83       	std	Y+1, r30	; 0x01
    1526:	28 2e       	mov	r2, r24
    1528:	31 2c       	mov	r3, r1
    152a:	33 c0       	rjmp	.+102    	; 0x1592 <bitmap+0xc2>
    152c:	86 95       	lsr	r24
    152e:	86 95       	lsr	r24
    1530:	86 95       	lsr	r24
    1532:	f5 01       	movw	r30, r10
    1534:	e8 0f       	add	r30, r24
    1536:	f1 1d       	adc	r31, r1
    1538:	e8 0d       	add	r30, r8
    153a:	f9 1d       	adc	r31, r9
    153c:	e4 91       	lpm	r30, Z
    153e:	f0 e0       	ldi	r31, 0x00	; 0
    1540:	c8 01       	movw	r24, r16
    1542:	87 70       	andi	r24, 0x07	; 7
    1544:	99 27       	eor	r25, r25
    1546:	20 e8       	ldi	r18, 0x80	; 128
    1548:	30 e0       	ldi	r19, 0x00	; 0
    154a:	02 c0       	rjmp	.+4      	; 0x1550 <bitmap+0x80>
    154c:	35 95       	asr	r19
    154e:	27 95       	ror	r18
    1550:	8a 95       	dec	r24
    1552:	e2 f7       	brpl	.-8      	; 0x154c <bitmap+0x7c>
    1554:	e2 23       	and	r30, r18
    1556:	f3 23       	and	r31, r19
    1558:	ef 2b       	or	r30, r31
    155a:	41 f0       	breq	.+16     	; 0x156c <bitmap+0x9c>
    155c:	97 01       	movw	r18, r14
    155e:	41 e0       	ldi	r20, 0x01	; 1
    1560:	b3 01       	movw	r22, r6
    1562:	c8 01       	movw	r24, r16
    1564:	82 0d       	add	r24, r2
    1566:	93 1d       	adc	r25, r3
    1568:	0e 94 ea 09 	call	0x13d4	; 0x13d4 <sh1106_pixel_mirek>
    156c:	0f 5f       	subi	r16, 0xFF	; 255
    156e:	1f 4f       	sbci	r17, 0xFF	; 255
    1570:	06 c0       	rjmp	.+12     	; 0x157e <bitmap+0xae>
    1572:	00 e0       	ldi	r16, 0x00	; 0
    1574:	10 e0       	ldi	r17, 0x00	; 0
    1576:	69 80       	ldd	r6, Y+1	; 0x01
    1578:	7a 80       	ldd	r7, Y+2	; 0x02
    157a:	6c 0c       	add	r6, r12
    157c:	7d 1c       	adc	r7, r13
    157e:	80 2f       	mov	r24, r16
    1580:	05 15       	cp	r16, r5
    1582:	a0 f2       	brcs	.-88     	; 0x152c <bitmap+0x5c>
    1584:	3f ef       	ldi	r19, 0xFF	; 255
    1586:	c3 1a       	sub	r12, r19
    1588:	d3 0a       	sbc	r13, r19
    158a:	8b 81       	ldd	r24, Y+3	; 0x03
    158c:	9c 81       	ldd	r25, Y+4	; 0x04
    158e:	a8 0e       	add	r10, r24
    1590:	b9 1e       	adc	r11, r25
    1592:	c4 14       	cp	r12, r4
    1594:	70 f3       	brcs	.-36     	; 0x1572 <bitmap+0xa2>
    1596:	0f 90       	pop	r0
    1598:	0f 90       	pop	r0
    159a:	0f 90       	pop	r0
    159c:	0f 90       	pop	r0
    159e:	df 91       	pop	r29
    15a0:	cf 91       	pop	r28
    15a2:	1f 91       	pop	r17
    15a4:	0f 91       	pop	r16
    15a6:	ff 90       	pop	r15
    15a8:	ef 90       	pop	r14
    15aa:	df 90       	pop	r13
    15ac:	cf 90       	pop	r12
    15ae:	bf 90       	pop	r11
    15b0:	af 90       	pop	r10
    15b2:	9f 90       	pop	r9
    15b4:	8f 90       	pop	r8
    15b6:	7f 90       	pop	r7
    15b8:	6f 90       	pop	r6
    15ba:	5f 90       	pop	r5
    15bc:	4f 90       	pop	r4
    15be:	3f 90       	pop	r3
    15c0:	2f 90       	pop	r2
    15c2:	08 95       	ret

000015c4 <SH1106_char3216>:
    15c4:	7f 92       	push	r7
    15c6:	8f 92       	push	r8
    15c8:	9f 92       	push	r9
    15ca:	af 92       	push	r10
    15cc:	bf 92       	push	r11
    15ce:	cf 92       	push	r12
    15d0:	df 92       	push	r13
    15d2:	ef 92       	push	r14
    15d4:	ff 92       	push	r15
    15d6:	0f 93       	push	r16
    15d8:	1f 93       	push	r17
    15da:	cf 93       	push	r28
    15dc:	df 93       	push	r29
    15de:	a8 2e       	mov	r10, r24
    15e0:	96 2e       	mov	r9, r22
    15e2:	79 01       	movw	r14, r18
    15e4:	b6 2e       	mov	r11, r22
    15e6:	00 e0       	ldi	r16, 0x00	; 0
    15e8:	10 e0       	ldi	r17, 0x00	; 0
    15ea:	c4 2f       	mov	r28, r20
    15ec:	d0 e0       	ldi	r29, 0x00	; 0
    15ee:	ae 97       	sbiw	r28, 0x2e	; 46
    15f0:	86 e0       	ldi	r24, 0x06	; 6
    15f2:	cc 0f       	add	r28, r28
    15f4:	dd 1f       	adc	r29, r29
    15f6:	8a 95       	dec	r24
    15f8:	e1 f7       	brne	.-8      	; 0x15f2 <SH1106_char3216+0x2e>
    15fa:	c6 2e       	mov	r12, r22
    15fc:	d1 2c       	mov	r13, r1
    15fe:	f8 01       	movw	r30, r16
    1600:	ec 0f       	add	r30, r28
    1602:	fd 1f       	adc	r31, r29
    1604:	e8 54       	subi	r30, 0x48	; 72
    1606:	f5 4f       	sbci	r31, 0xF5	; 245
    1608:	84 90       	lpm	r8, Z
    160a:	b8 e0       	ldi	r27, 0x08	; 8
    160c:	7b 2e       	mov	r7, r27
    160e:	7b 0c       	add	r7, r11
    1610:	48 2d       	mov	r20, r8
    1612:	44 1f       	adc	r20, r20
    1614:	44 27       	eor	r20, r20
    1616:	44 1f       	adc	r20, r20
    1618:	97 01       	movw	r18, r14
    161a:	6b 2d       	mov	r22, r11
    161c:	70 e0       	ldi	r23, 0x00	; 0
    161e:	8a 2d       	mov	r24, r10
    1620:	90 e0       	ldi	r25, 0x00	; 0
    1622:	0e 94 ea 09 	call	0x13d4	; 0x13d4 <sh1106_pixel_mirek>
    1626:	88 0c       	add	r8, r8
    1628:	b3 94       	inc	r11
    162a:	4b 2d       	mov	r20, r11
    162c:	50 e0       	ldi	r21, 0x00	; 0
    162e:	4c 19       	sub	r20, r12
    1630:	5d 09       	sbc	r21, r13
    1632:	40 32       	cpi	r20, 0x20	; 32
    1634:	51 05       	cpc	r21, r1
    1636:	19 f4       	brne	.+6      	; 0x163e <SH1106_char3216+0x7a>
    1638:	a3 94       	inc	r10
    163a:	b9 2c       	mov	r11, r9
    163c:	02 c0       	rjmp	.+4      	; 0x1642 <SH1106_char3216+0x7e>
    163e:	b7 10       	cpse	r11, r7
    1640:	e7 cf       	rjmp	.-50     	; 0x1610 <SH1106_char3216+0x4c>
    1642:	0f 5f       	subi	r16, 0xFF	; 255
    1644:	1f 4f       	sbci	r17, 0xFF	; 255
    1646:	00 34       	cpi	r16, 0x40	; 64
    1648:	11 05       	cpc	r17, r1
    164a:	c9 f6       	brne	.-78     	; 0x15fe <SH1106_char3216+0x3a>
    164c:	df 91       	pop	r29
    164e:	cf 91       	pop	r28
    1650:	1f 91       	pop	r17
    1652:	0f 91       	pop	r16
    1654:	ff 90       	pop	r15
    1656:	ef 90       	pop	r14
    1658:	df 90       	pop	r13
    165a:	cf 90       	pop	r12
    165c:	bf 90       	pop	r11
    165e:	af 90       	pop	r10
    1660:	9f 90       	pop	r9
    1662:	8f 90       	pop	r8
    1664:	7f 90       	pop	r7
    1666:	08 95       	ret

00001668 <SH1106_char>:
    1668:	2f 92       	push	r2
    166a:	3f 92       	push	r3
    166c:	4f 92       	push	r4
    166e:	5f 92       	push	r5
    1670:	6f 92       	push	r6
    1672:	7f 92       	push	r7
    1674:	8f 92       	push	r8
    1676:	9f 92       	push	r9
    1678:	af 92       	push	r10
    167a:	bf 92       	push	r11
    167c:	cf 92       	push	r12
    167e:	df 92       	push	r13
    1680:	ef 92       	push	r14
    1682:	ff 92       	push	r15
    1684:	0f 93       	push	r16
    1686:	1f 93       	push	r17
    1688:	cf 93       	push	r28
    168a:	df 93       	push	r29
    168c:	00 d0       	rcall	.+0      	; 0x168e <SH1106_char+0x26>
    168e:	1f 92       	push	r1
    1690:	cd b7       	in	r28, 0x3d	; 61
    1692:	de b7       	in	r29, 0x3e	; 62
    1694:	58 2e       	mov	r5, r24
    1696:	46 2e       	mov	r4, r22
    1698:	12 2f       	mov	r17, r18
    169a:	40 52       	subi	r20, 0x20	; 32
    169c:	26 2e       	mov	r2, r22
    169e:	1b 82       	std	Y+3, r1	; 0x03
    16a0:	1a 82       	std	Y+2, r1	; 0x02
    16a2:	84 2f       	mov	r24, r20
    16a4:	90 e0       	ldi	r25, 0x00	; 0
    16a6:	6c 01       	movw	r12, r24
    16a8:	24 e0       	ldi	r18, 0x04	; 4
    16aa:	cc 0c       	add	r12, r12
    16ac:	dd 1c       	adc	r13, r13
    16ae:	2a 95       	dec	r18
    16b0:	e1 f7       	brne	.-8      	; 0x16aa <SH1106_char+0x42>
    16b2:	18 9f       	mul	r17, r24
    16b4:	50 01       	movw	r10, r0
    16b6:	19 9f       	mul	r17, r25
    16b8:	b0 0c       	add	r11, r0
    16ba:	11 24       	eor	r1, r1
    16bc:	86 2e       	mov	r8, r22
    16be:	91 2c       	mov	r9, r1
    16c0:	61 2e       	mov	r6, r17
    16c2:	71 2c       	mov	r7, r1
    16c4:	36 c0       	rjmp	.+108    	; 0x1732 <SH1106_char+0xca>
    16c6:	ea 81       	ldd	r30, Y+2	; 0x02
    16c8:	fb 81       	ldd	r31, Y+3	; 0x03
    16ca:	1c 30       	cpi	r17, 0x0C	; 12
    16cc:	51 f4       	brne	.+20     	; 0x16e2 <SH1106_char+0x7a>
    16ce:	ea 0d       	add	r30, r10
    16d0:	fb 1d       	adc	r31, r11
    16d2:	ec 5b       	subi	r30, 0xBC	; 188
    16d4:	f9 4f       	sbci	r31, 0xF9	; 249
    16d6:	09 c0       	rjmp	.+18     	; 0x16ea <SH1106_char+0x82>
    16d8:	30 94       	com	r3
    16da:	82 2d       	mov	r24, r2
    16dc:	88 5f       	subi	r24, 0xF8	; 248
    16de:	89 83       	std	Y+1, r24	; 0x01
    16e0:	08 c0       	rjmp	.+16     	; 0x16f2 <SH1106_char+0x8a>
    16e2:	ec 0d       	add	r30, r12
    16e4:	fd 1d       	adc	r31, r13
    16e6:	ec 5a       	subi	r30, 0xAC	; 172
    16e8:	ff 4f       	sbci	r31, 0xFF	; 255
    16ea:	34 90       	lpm	r3, Z
    16ec:	00 23       	and	r16, r16
    16ee:	a1 f3       	breq	.-24     	; 0x16d8 <SH1106_char+0x70>
    16f0:	f4 cf       	rjmp	.-24     	; 0x16da <SH1106_char+0x72>
    16f2:	97 01       	movw	r18, r14
    16f4:	37 fe       	sbrs	r3, 7
    16f6:	02 c0       	rjmp	.+4      	; 0x16fc <SH1106_char+0x94>
    16f8:	41 e0       	ldi	r20, 0x01	; 1
    16fa:	01 c0       	rjmp	.+2      	; 0x16fe <SH1106_char+0x96>
    16fc:	40 e0       	ldi	r20, 0x00	; 0
    16fe:	62 2d       	mov	r22, r2
    1700:	70 e0       	ldi	r23, 0x00	; 0
    1702:	85 2d       	mov	r24, r5
    1704:	90 e0       	ldi	r25, 0x00	; 0
    1706:	0e 94 ea 09 	call	0x13d4	; 0x13d4 <sh1106_pixel_mirek>
    170a:	33 0c       	add	r3, r3
    170c:	23 94       	inc	r2
    170e:	82 2d       	mov	r24, r2
    1710:	90 e0       	ldi	r25, 0x00	; 0
    1712:	88 19       	sub	r24, r8
    1714:	99 09       	sbc	r25, r9
    1716:	86 15       	cp	r24, r6
    1718:	97 05       	cpc	r25, r7
    171a:	19 f4       	brne	.+6      	; 0x1722 <SH1106_char+0xba>
    171c:	53 94       	inc	r5
    171e:	24 2c       	mov	r2, r4
    1720:	03 c0       	rjmp	.+6      	; 0x1728 <SH1106_char+0xc0>
    1722:	99 81       	ldd	r25, Y+1	; 0x01
    1724:	29 12       	cpse	r2, r25
    1726:	e5 cf       	rjmp	.-54     	; 0x16f2 <SH1106_char+0x8a>
    1728:	ea 81       	ldd	r30, Y+2	; 0x02
    172a:	fb 81       	ldd	r31, Y+3	; 0x03
    172c:	31 96       	adiw	r30, 0x01	; 1
    172e:	fb 83       	std	Y+3, r31	; 0x03
    1730:	ea 83       	std	Y+2, r30	; 0x02
    1732:	fa 81       	ldd	r31, Y+2	; 0x02
    1734:	f1 17       	cp	r31, r17
    1736:	38 f2       	brcs	.-114    	; 0x16c6 <SH1106_char+0x5e>
    1738:	0f 90       	pop	r0
    173a:	0f 90       	pop	r0
    173c:	0f 90       	pop	r0
    173e:	df 91       	pop	r29
    1740:	cf 91       	pop	r28
    1742:	1f 91       	pop	r17
    1744:	0f 91       	pop	r16
    1746:	ff 90       	pop	r15
    1748:	ef 90       	pop	r14
    174a:	df 90       	pop	r13
    174c:	cf 90       	pop	r12
    174e:	bf 90       	pop	r11
    1750:	af 90       	pop	r10
    1752:	9f 90       	pop	r9
    1754:	8f 90       	pop	r8
    1756:	7f 90       	pop	r7
    1758:	6f 90       	pop	r6
    175a:	5f 90       	pop	r5
    175c:	4f 90       	pop	r4
    175e:	3f 90       	pop	r3
    1760:	2f 90       	pop	r2
    1762:	08 95       	ret

00001764 <SH1106_string>:
    1764:	4f 92       	push	r4
    1766:	5f 92       	push	r5
    1768:	6f 92       	push	r6
    176a:	7f 92       	push	r7
    176c:	8f 92       	push	r8
    176e:	9f 92       	push	r9
    1770:	af 92       	push	r10
    1772:	bf 92       	push	r11
    1774:	cf 92       	push	r12
    1776:	df 92       	push	r13
    1778:	ef 92       	push	r14
    177a:	ff 92       	push	r15
    177c:	0f 93       	push	r16
    177e:	1f 93       	push	r17
    1780:	cf 93       	push	r28
    1782:	df 93       	push	r29
    1784:	18 2f       	mov	r17, r24
    1786:	76 2e       	mov	r7, r22
    1788:	62 2e       	mov	r6, r18
    178a:	40 2e       	mov	r4, r16
    178c:	47 01       	movw	r8, r14
    178e:	52 2e       	mov	r5, r18
    1790:	56 94       	lsr	r5
    1792:	30 e8       	ldi	r19, 0x80	; 128
    1794:	c3 2e       	mov	r12, r19
    1796:	d1 2c       	mov	r13, r1
    1798:	c5 18       	sub	r12, r5
    179a:	d1 08       	sbc	r13, r1
    179c:	ea 01       	movw	r28, r20
    179e:	40 e4       	ldi	r20, 0x40	; 64
    17a0:	a4 2e       	mov	r10, r20
    17a2:	b1 2c       	mov	r11, r1
    17a4:	a2 1a       	sub	r10, r18
    17a6:	b1 08       	sbc	r11, r1
    17a8:	16 c0       	rjmp	.+44     	; 0x17d6 <SH1106_string+0x72>
    17aa:	e1 2f       	mov	r30, r17
    17ac:	f0 e0       	ldi	r31, 0x00	; 0
    17ae:	ce 16       	cp	r12, r30
    17b0:	df 06       	cpc	r13, r31
    17b2:	4c f4       	brge	.+18     	; 0x17c6 <SH1106_string+0x62>
    17b4:	76 0c       	add	r7, r6
    17b6:	87 2d       	mov	r24, r7
    17b8:	90 e0       	ldi	r25, 0x00	; 0
    17ba:	a8 16       	cp	r10, r24
    17bc:	b9 06       	cpc	r11, r25
    17be:	0c f0       	brlt	.+2      	; 0x17c2 <SH1106_string+0x5e>
    17c0:	01 c0       	rjmp	.+2      	; 0x17c4 <SH1106_string+0x60>
    17c2:	71 2c       	mov	r7, r1
    17c4:	10 e0       	ldi	r17, 0x00	; 0
    17c6:	74 01       	movw	r14, r8
    17c8:	04 2d       	mov	r16, r4
    17ca:	26 2d       	mov	r18, r6
    17cc:	67 2d       	mov	r22, r7
    17ce:	81 2f       	mov	r24, r17
    17d0:	0e 94 34 0b 	call	0x1668	; 0x1668 <SH1106_char>
    17d4:	15 0d       	add	r17, r5
    17d6:	49 91       	ld	r20, Y+
    17d8:	41 11       	cpse	r20, r1
    17da:	e7 cf       	rjmp	.-50     	; 0x17aa <SH1106_string+0x46>
    17dc:	df 91       	pop	r29
    17de:	cf 91       	pop	r28
    17e0:	1f 91       	pop	r17
    17e2:	0f 91       	pop	r16
    17e4:	ff 90       	pop	r15
    17e6:	ef 90       	pop	r14
    17e8:	df 90       	pop	r13
    17ea:	cf 90       	pop	r12
    17ec:	bf 90       	pop	r11
    17ee:	af 90       	pop	r10
    17f0:	9f 90       	pop	r9
    17f2:	8f 90       	pop	r8
    17f4:	7f 90       	pop	r7
    17f6:	6f 90       	pop	r6
    17f8:	5f 90       	pop	r5
    17fa:	4f 90       	pop	r4
    17fc:	08 95       	ret

000017fe <pomiar4>:
    17fe:	87 b1       	in	r24, 0x07	; 7
    1800:	88 7f       	andi	r24, 0xF8	; 248
    1802:	84 60       	ori	r24, 0x04	; 4
    1804:	87 b9       	out	0x07, r24	; 7
    1806:	36 9a       	sbi	0x06, 6	; 6
    1808:	36 99       	sbic	0x06, 6	; 6
    180a:	fe cf       	rjmp	.-4      	; 0x1808 <pomiar4+0xa>
    180c:	20 91 de 00 	lds	r18, 0x00DE
    1810:	84 b1       	in	r24, 0x04	; 4
    1812:	95 b1       	in	r25, 0x05	; 5
    1814:	e2 2f       	mov	r30, r18
    1816:	f0 e0       	ldi	r31, 0x00	; 0
    1818:	ee 0f       	add	r30, r30
    181a:	ff 1f       	adc	r31, r31
    181c:	e1 52       	subi	r30, 0x21	; 33
    181e:	ff 4f       	sbci	r31, 0xFF	; 255
    1820:	91 83       	std	Z+1, r25	; 0x01
    1822:	80 83       	st	Z, r24
    1824:	82 2f       	mov	r24, r18
    1826:	8f 5f       	subi	r24, 0xFF	; 255
    1828:	80 32       	cpi	r24, 0x20	; 32
    182a:	19 f0       	breq	.+6      	; 0x1832 <pomiar4+0x34>
    182c:	80 93 de 00 	sts	0x00DE, r24
    1830:	02 c0       	rjmp	.+4      	; 0x1836 <pomiar4+0x38>
    1832:	10 92 de 00 	sts	0x00DE, r1
    1836:	ef ed       	ldi	r30, 0xDF	; 223
    1838:	f0 e0       	ldi	r31, 0x00	; 0
    183a:	40 e0       	ldi	r20, 0x00	; 0
    183c:	50 e0       	ldi	r21, 0x00	; 0
    183e:	ba 01       	movw	r22, r20
    1840:	81 91       	ld	r24, Z+
    1842:	91 91       	ld	r25, Z+
    1844:	48 0f       	add	r20, r24
    1846:	59 1f       	adc	r21, r25
    1848:	61 1d       	adc	r22, r1
    184a:	71 1d       	adc	r23, r1
    184c:	81 e0       	ldi	r24, 0x01	; 1
    184e:	ef 31       	cpi	r30, 0x1F	; 31
    1850:	f8 07       	cpc	r31, r24
    1852:	b1 f7       	brne	.-20     	; 0x1840 <pomiar4+0x42>
    1854:	85 e0       	ldi	r24, 0x05	; 5
    1856:	76 95       	lsr	r23
    1858:	67 95       	ror	r22
    185a:	57 95       	ror	r21
    185c:	47 95       	ror	r20
    185e:	8a 95       	dec	r24
    1860:	d1 f7       	brne	.-12     	; 0x1856 <pomiar4+0x58>
    1862:	ca 01       	movw	r24, r20
    1864:	08 95       	ret

00001866 <pomiar6>:
    1866:	87 b1       	in	r24, 0x07	; 7
    1868:	88 7f       	andi	r24, 0xF8	; 248
    186a:	86 60       	ori	r24, 0x06	; 6
    186c:	87 b9       	out	0x07, r24	; 7
    186e:	36 9a       	sbi	0x06, 6	; 6
    1870:	36 99       	sbic	0x06, 6	; 6
    1872:	fe cf       	rjmp	.-4      	; 0x1870 <pomiar6+0xa>
    1874:	20 91 1f 01 	lds	r18, 0x011F
    1878:	84 b1       	in	r24, 0x04	; 4
    187a:	95 b1       	in	r25, 0x05	; 5
    187c:	e2 2f       	mov	r30, r18
    187e:	f0 e0       	ldi	r31, 0x00	; 0
    1880:	ee 0f       	add	r30, r30
    1882:	ff 1f       	adc	r31, r31
    1884:	e0 5e       	subi	r30, 0xE0	; 224
    1886:	fe 4f       	sbci	r31, 0xFE	; 254
    1888:	91 83       	std	Z+1, r25	; 0x01
    188a:	80 83       	st	Z, r24
    188c:	82 2f       	mov	r24, r18
    188e:	8f 5f       	subi	r24, 0xFF	; 255
    1890:	80 32       	cpi	r24, 0x20	; 32
    1892:	19 f0       	breq	.+6      	; 0x189a <pomiar6+0x34>
    1894:	80 93 1f 01 	sts	0x011F, r24
    1898:	02 c0       	rjmp	.+4      	; 0x189e <pomiar6+0x38>
    189a:	10 92 1f 01 	sts	0x011F, r1
    189e:	e0 e2       	ldi	r30, 0x20	; 32
    18a0:	f1 e0       	ldi	r31, 0x01	; 1
    18a2:	40 e0       	ldi	r20, 0x00	; 0
    18a4:	50 e0       	ldi	r21, 0x00	; 0
    18a6:	ba 01       	movw	r22, r20
    18a8:	81 91       	ld	r24, Z+
    18aa:	91 91       	ld	r25, Z+
    18ac:	48 0f       	add	r20, r24
    18ae:	59 1f       	adc	r21, r25
    18b0:	61 1d       	adc	r22, r1
    18b2:	71 1d       	adc	r23, r1
    18b4:	81 e0       	ldi	r24, 0x01	; 1
    18b6:	e0 36       	cpi	r30, 0x60	; 96
    18b8:	f8 07       	cpc	r31, r24
    18ba:	b1 f7       	brne	.-20     	; 0x18a8 <pomiar6+0x42>
    18bc:	e5 e0       	ldi	r30, 0x05	; 5
    18be:	76 95       	lsr	r23
    18c0:	67 95       	ror	r22
    18c2:	57 95       	ror	r21
    18c4:	47 95       	ror	r20
    18c6:	ea 95       	dec	r30
    18c8:	d1 f7       	brne	.-12     	; 0x18be <pomiar6+0x58>
    18ca:	ca 01       	movw	r24, r20
    18cc:	08 95       	ret

000018ce <adc_to_temp>:
    18ce:	2a e1       	ldi	r18, 0x1A	; 26
    18d0:	ac 01       	movw	r20, r24
    18d2:	24 9f       	mul	r18, r20
    18d4:	c0 01       	movw	r24, r0
    18d6:	25 9f       	mul	r18, r21
    18d8:	90 0d       	add	r25, r0
    18da:	11 24       	eor	r1, r1
    18dc:	64 e6       	ldi	r22, 0x64	; 100
    18de:	70 e0       	ldi	r23, 0x00	; 0
    18e0:	0e 94 48 12 	call	0x2490	; 0x2490 <__udivmodhi4>
    18e4:	6f 53       	subi	r22, 0x3F	; 63
    18e6:	71 09       	sbc	r23, r1
    18e8:	cb 01       	movw	r24, r22
    18ea:	08 95       	ret

000018ec <adc_to_volt>:
    18ec:	25 e2       	ldi	r18, 0x25	; 37
    18ee:	28 9f       	mul	r18, r24
    18f0:	f0 01       	movw	r30, r0
    18f2:	29 9f       	mul	r18, r25
    18f4:	f0 0d       	add	r31, r0
    18f6:	11 24       	eor	r1, r1
    18f8:	cf 01       	movw	r24, r30
    18fa:	60 e1       	ldi	r22, 0x10	; 16
    18fc:	77 e2       	ldi	r23, 0x27	; 39
    18fe:	0e 94 48 12 	call	0x2490	; 0x2490 <__udivmodhi4>
    1902:	60 93 64 06 	sts	0x0664, r22
    1906:	24 e6       	ldi	r18, 0x64	; 100
    1908:	30 e0       	ldi	r19, 0x00	; 0
    190a:	cf 01       	movw	r24, r30
    190c:	b9 01       	movw	r22, r18
    190e:	0e 94 48 12 	call	0x2490	; 0x2490 <__udivmodhi4>
    1912:	cb 01       	movw	r24, r22
    1914:	b9 01       	movw	r22, r18
    1916:	0e 94 48 12 	call	0x2490	; 0x2490 <__udivmodhi4>
    191a:	80 93 63 06 	sts	0x0663, r24
    191e:	08 95       	ret

00001920 <battery>:
    1920:	ef 92       	push	r14
    1922:	ff 92       	push	r15
    1924:	0f 93       	push	r16
    1926:	cf 93       	push	r28
    1928:	df 93       	push	r29
    192a:	80 91 e0 06 	lds	r24, 0x06E0
    192e:	81 30       	cpi	r24, 0x01	; 1
    1930:	21 f5       	brne	.+72     	; 0x197a <battery+0x5a>
    1932:	80 91 64 06 	lds	r24, 0x0664
    1936:	1f 92       	push	r1
    1938:	8f 93       	push	r24
    193a:	c0 e6       	ldi	r28, 0x60	; 96
    193c:	d0 e0       	ldi	r29, 0x00	; 0
    193e:	df 93       	push	r29
    1940:	cf 93       	push	r28
    1942:	89 ef       	ldi	r24, 0xF9	; 249
    1944:	96 e0       	ldi	r25, 0x06	; 6
    1946:	9f 93       	push	r25
    1948:	8f 93       	push	r24
    194a:	0e 94 65 12 	call	0x24ca	; 0x24ca <sprintf>
    194e:	80 91 63 06 	lds	r24, 0x0663
    1952:	1f 92       	push	r1
    1954:	8f 93       	push	r24
    1956:	df 93       	push	r29
    1958:	cf 93       	push	r28
    195a:	8b e0       	ldi	r24, 0x0B	; 11
    195c:	97 e0       	ldi	r25, 0x07	; 7
    195e:	9f 93       	push	r25
    1960:	8f 93       	push	r24
    1962:	0e 94 65 12 	call	0x24ca	; 0x24ca <sprintf>
    1966:	10 92 e0 06 	sts	0x06E0, r1
    196a:	8d b7       	in	r24, 0x3d	; 61
    196c:	9e b7       	in	r25, 0x3e	; 62
    196e:	0c 96       	adiw	r24, 0x0c	; 12
    1970:	0f b6       	in	r0, 0x3f	; 63
    1972:	f8 94       	cli
    1974:	9e bf       	out	0x3e, r25	; 62
    1976:	0f be       	out	0x3f, r0	; 63
    1978:	8d bf       	out	0x3d, r24	; 61
    197a:	0e 94 33 0c 	call	0x1866	; 0x1866 <pomiar6>
    197e:	0e 94 76 0c 	call	0x18ec	; 0x18ec <adc_to_volt>
    1982:	83 e6       	ldi	r24, 0x63	; 99
    1984:	e8 2e       	mov	r14, r24
    1986:	82 e0       	ldi	r24, 0x02	; 2
    1988:	f8 2e       	mov	r15, r24
    198a:	01 e0       	ldi	r16, 0x01	; 1
    198c:	20 e1       	ldi	r18, 0x10	; 16
    198e:	43 e6       	ldi	r20, 0x63	; 99
    1990:	50 e0       	ldi	r21, 0x00	; 0
    1992:	60 e0       	ldi	r22, 0x00	; 0
    1994:	80 e5       	ldi	r24, 0x50	; 80
    1996:	0e 94 b2 0b 	call	0x1764	; 0x1764 <SH1106_string>
    199a:	20 e1       	ldi	r18, 0x10	; 16
    199c:	49 ef       	ldi	r20, 0xF9	; 249
    199e:	56 e0       	ldi	r21, 0x06	; 6
    19a0:	60 e0       	ldi	r22, 0x00	; 0
    19a2:	88 e5       	ldi	r24, 0x58	; 88
    19a4:	0e 94 b2 0b 	call	0x1764	; 0x1764 <SH1106_string>
    19a8:	20 e1       	ldi	r18, 0x10	; 16
    19aa:	45 e6       	ldi	r20, 0x65	; 101
    19ac:	50 e0       	ldi	r21, 0x00	; 0
    19ae:	60 e0       	ldi	r22, 0x00	; 0
    19b0:	80 e6       	ldi	r24, 0x60	; 96
    19b2:	0e 94 b2 0b 	call	0x1764	; 0x1764 <SH1106_string>
    19b6:	20 e1       	ldi	r18, 0x10	; 16
    19b8:	4b e0       	ldi	r20, 0x0B	; 11
    19ba:	57 e0       	ldi	r21, 0x07	; 7
    19bc:	60 e0       	ldi	r22, 0x00	; 0
    19be:	88 e6       	ldi	r24, 0x68	; 104
    19c0:	0e 94 b2 0b 	call	0x1764	; 0x1764 <SH1106_string>
    19c4:	20 e1       	ldi	r18, 0x10	; 16
    19c6:	47 e6       	ldi	r20, 0x67	; 103
    19c8:	50 e0       	ldi	r21, 0x00	; 0
    19ca:	60 e0       	ldi	r22, 0x00	; 0
    19cc:	88 e7       	ldi	r24, 0x78	; 120
    19ce:	0e 94 b2 0b 	call	0x1764	; 0x1764 <SH1106_string>
    19d2:	df 91       	pop	r29
    19d4:	cf 91       	pop	r28
    19d6:	0f 91       	pop	r16
    19d8:	ff 90       	pop	r15
    19da:	ef 90       	pop	r14
    19dc:	08 95       	ret

000019de <show_status>:
    19de:	ef 92       	push	r14
    19e0:	ff 92       	push	r15
    19e2:	0f 93       	push	r16
    19e4:	80 91 0e 07 	lds	r24, 0x070E
    19e8:	81 34       	cpi	r24, 0x41	; 65
    19ea:	99 f4       	brne	.+38     	; 0x1a12 <show_status+0x34>
    19ec:	23 e6       	ldi	r18, 0x63	; 99
    19ee:	e2 2e       	mov	r14, r18
    19f0:	22 e0       	ldi	r18, 0x02	; 2
    19f2:	f2 2e       	mov	r15, r18
    19f4:	01 e0       	ldi	r16, 0x01	; 1
    19f6:	20 e1       	ldi	r18, 0x10	; 16
    19f8:	4e e6       	ldi	r20, 0x6E	; 110
    19fa:	56 e0       	ldi	r21, 0x06	; 6
    19fc:	60 e0       	ldi	r22, 0x00	; 0
    19fe:	80 e0       	ldi	r24, 0x00	; 0
    1a00:	0e 94 b2 0b 	call	0x1764	; 0x1764 <SH1106_string>
    1a04:	20 e1       	ldi	r18, 0x10	; 16
    1a06:	49 e6       	ldi	r20, 0x69	; 105
    1a08:	50 e0       	ldi	r21, 0x00	; 0
    1a0a:	60 e0       	ldi	r22, 0x00	; 0
    1a0c:	88 e1       	ldi	r24, 0x18	; 24
    1a0e:	0e 94 b2 0b 	call	0x1764	; 0x1764 <SH1106_string>
    1a12:	80 91 0e 07 	lds	r24, 0x070E
    1a16:	86 35       	cpi	r24, 0x56	; 86
    1a18:	99 f4       	brne	.+38     	; 0x1a40 <show_status+0x62>
    1a1a:	93 e6       	ldi	r25, 0x63	; 99
    1a1c:	e9 2e       	mov	r14, r25
    1a1e:	92 e0       	ldi	r25, 0x02	; 2
    1a20:	f9 2e       	mov	r15, r25
    1a22:	01 e0       	ldi	r16, 0x01	; 1
    1a24:	20 e1       	ldi	r18, 0x10	; 16
    1a26:	4e e6       	ldi	r20, 0x6E	; 110
    1a28:	56 e0       	ldi	r21, 0x06	; 6
    1a2a:	60 e0       	ldi	r22, 0x00	; 0
    1a2c:	80 e0       	ldi	r24, 0x00	; 0
    1a2e:	0e 94 b2 0b 	call	0x1764	; 0x1764 <SH1106_string>
    1a32:	20 e1       	ldi	r18, 0x10	; 16
    1a34:	40 e7       	ldi	r20, 0x70	; 112
    1a36:	50 e0       	ldi	r21, 0x00	; 0
    1a38:	60 e0       	ldi	r22, 0x00	; 0
    1a3a:	88 e1       	ldi	r24, 0x18	; 24
    1a3c:	0e 94 b2 0b 	call	0x1764	; 0x1764 <SH1106_string>
    1a40:	0f 91       	pop	r16
    1a42:	ff 90       	pop	r15
    1a44:	ef 90       	pop	r14
    1a46:	08 95       	ret

00001a48 <show_time>:
    1a48:	ef 92       	push	r14
    1a4a:	ff 92       	push	r15
    1a4c:	0f 93       	push	r16
    1a4e:	80 91 89 06 	lds	r24, 0x0689
    1a52:	80 ff       	sbrs	r24, 0
    1a54:	0b c0       	rjmp	.+22     	; 0x1a6c <show_time+0x24>
    1a56:	43 e6       	ldi	r20, 0x63	; 99
    1a58:	e4 2e       	mov	r14, r20
    1a5a:	42 e0       	ldi	r20, 0x02	; 2
    1a5c:	f4 2e       	mov	r15, r20
    1a5e:	01 e0       	ldi	r16, 0x01	; 1
    1a60:	2c e0       	ldi	r18, 0x0C	; 12
    1a62:	4a e3       	ldi	r20, 0x3A	; 58
    1a64:	64 e3       	ldi	r22, 0x34	; 52
    1a66:	8c e0       	ldi	r24, 0x0C	; 12
    1a68:	0e 94 34 0b 	call	0x1668	; 0x1668 <SH1106_char>
    1a6c:	33 e6       	ldi	r19, 0x63	; 99
    1a6e:	e3 2e       	mov	r14, r19
    1a70:	32 e0       	ldi	r19, 0x02	; 2
    1a72:	f3 2e       	mov	r15, r19
    1a74:	01 e0       	ldi	r16, 0x01	; 1
    1a76:	2c e0       	ldi	r18, 0x0C	; 12
    1a78:	40 91 84 06 	lds	r20, 0x0684
    1a7c:	64 e3       	ldi	r22, 0x34	; 52
    1a7e:	80 e0       	ldi	r24, 0x00	; 0
    1a80:	0e 94 34 0b 	call	0x1668	; 0x1668 <SH1106_char>
    1a84:	2c e0       	ldi	r18, 0x0C	; 12
    1a86:	40 91 85 06 	lds	r20, 0x0685
    1a8a:	64 e3       	ldi	r22, 0x34	; 52
    1a8c:	86 e0       	ldi	r24, 0x06	; 6
    1a8e:	0e 94 34 0b 	call	0x1668	; 0x1668 <SH1106_char>
    1a92:	2c e0       	ldi	r18, 0x0C	; 12
    1a94:	40 91 86 06 	lds	r20, 0x0686
    1a98:	64 e3       	ldi	r22, 0x34	; 52
    1a9a:	82 e1       	ldi	r24, 0x12	; 18
    1a9c:	0e 94 34 0b 	call	0x1668	; 0x1668 <SH1106_char>
    1aa0:	2c e0       	ldi	r18, 0x0C	; 12
    1aa2:	40 91 87 06 	lds	r20, 0x0687
    1aa6:	64 e3       	ldi	r22, 0x34	; 52
    1aa8:	88 e1       	ldi	r24, 0x18	; 24
    1aaa:	0e 94 34 0b 	call	0x1668	; 0x1668 <SH1106_char>
    1aae:	0f 91       	pop	r16
    1ab0:	ff 90       	pop	r15
    1ab2:	ef 90       	pop	r14
    1ab4:	08 95       	ret

00001ab6 <show_date>:
    1ab6:	ef 92       	push	r14
    1ab8:	ff 92       	push	r15
    1aba:	0f 93       	push	r16
    1abc:	53 e6       	ldi	r21, 0x63	; 99
    1abe:	e5 2e       	mov	r14, r21
    1ac0:	52 e0       	ldi	r21, 0x02	; 2
    1ac2:	f5 2e       	mov	r15, r21
    1ac4:	01 e0       	ldi	r16, 0x01	; 1
    1ac6:	2c e0       	ldi	r18, 0x0C	; 12
    1ac8:	40 91 fc 06 	lds	r20, 0x06FC
    1acc:	64 e3       	ldi	r22, 0x34	; 52
    1ace:	84 e2       	ldi	r24, 0x24	; 36
    1ad0:	0e 94 34 0b 	call	0x1668	; 0x1668 <SH1106_char>
    1ad4:	2c e0       	ldi	r18, 0x0C	; 12
    1ad6:	40 91 fd 06 	lds	r20, 0x06FD
    1ada:	64 e3       	ldi	r22, 0x34	; 52
    1adc:	8a e2       	ldi	r24, 0x2A	; 42
    1ade:	0e 94 34 0b 	call	0x1668	; 0x1668 <SH1106_char>
    1ae2:	2c e0       	ldi	r18, 0x0C	; 12
    1ae4:	4f e2       	ldi	r20, 0x2F	; 47
    1ae6:	64 e3       	ldi	r22, 0x34	; 52
    1ae8:	80 e3       	ldi	r24, 0x30	; 48
    1aea:	0e 94 34 0b 	call	0x1668	; 0x1668 <SH1106_char>
    1aee:	2c e0       	ldi	r18, 0x0C	; 12
    1af0:	40 91 fe 06 	lds	r20, 0x06FE
    1af4:	64 e3       	ldi	r22, 0x34	; 52
    1af6:	86 e3       	ldi	r24, 0x36	; 54
    1af8:	0e 94 34 0b 	call	0x1668	; 0x1668 <SH1106_char>
    1afc:	2c e0       	ldi	r18, 0x0C	; 12
    1afe:	40 91 ff 06 	lds	r20, 0x06FF
    1b02:	64 e3       	ldi	r22, 0x34	; 52
    1b04:	8c e3       	ldi	r24, 0x3C	; 60
    1b06:	0e 94 34 0b 	call	0x1668	; 0x1668 <SH1106_char>
    1b0a:	2c e0       	ldi	r18, 0x0C	; 12
    1b0c:	4f e2       	ldi	r20, 0x2F	; 47
    1b0e:	64 e3       	ldi	r22, 0x34	; 52
    1b10:	82 e4       	ldi	r24, 0x42	; 66
    1b12:	0e 94 34 0b 	call	0x1668	; 0x1668 <SH1106_char>
    1b16:	2c e0       	ldi	r18, 0x0C	; 12
    1b18:	40 91 00 07 	lds	r20, 0x0700
    1b1c:	64 e3       	ldi	r22, 0x34	; 52
    1b1e:	88 e4       	ldi	r24, 0x48	; 72
    1b20:	0e 94 34 0b 	call	0x1668	; 0x1668 <SH1106_char>
    1b24:	2c e0       	ldi	r18, 0x0C	; 12
    1b26:	40 91 01 07 	lds	r20, 0x0701
    1b2a:	64 e3       	ldi	r22, 0x34	; 52
    1b2c:	8e e4       	ldi	r24, 0x4E	; 78
    1b2e:	0e 94 34 0b 	call	0x1668	; 0x1668 <SH1106_char>
    1b32:	0f 91       	pop	r16
    1b34:	ff 90       	pop	r15
    1b36:	ef 90       	pop	r14
    1b38:	08 95       	ret

00001b3a <show_speed>:
    1b3a:	ef 92       	push	r14
    1b3c:	ff 92       	push	r15
    1b3e:	0f 93       	push	r16
    1b40:	63 e6       	ldi	r22, 0x63	; 99
    1b42:	e6 2e       	mov	r14, r22
    1b44:	62 e0       	ldi	r22, 0x02	; 2
    1b46:	f6 2e       	mov	r15, r22
    1b48:	01 e0       	ldi	r16, 0x01	; 1
    1b4a:	2c e0       	ldi	r18, 0x0C	; 12
    1b4c:	4d ee       	ldi	r20, 0xED	; 237
    1b4e:	56 e0       	ldi	r21, 0x06	; 6
    1b50:	64 e2       	ldi	r22, 0x24	; 36
    1b52:	80 e0       	ldi	r24, 0x00	; 0
    1b54:	0e 94 b2 0b 	call	0x1764	; 0x1764 <SH1106_string>
    1b58:	2c e0       	ldi	r18, 0x0C	; 12
    1b5a:	47 e7       	ldi	r20, 0x77	; 119
    1b5c:	50 e0       	ldi	r21, 0x00	; 0
    1b5e:	64 e2       	ldi	r22, 0x24	; 36
    1b60:	8e e1       	ldi	r24, 0x1E	; 30
    1b62:	0e 94 b2 0b 	call	0x1764	; 0x1764 <SH1106_string>
    1b66:	0f 91       	pop	r16
    1b68:	ff 90       	pop	r15
    1b6a:	ef 90       	pop	r14
    1b6c:	08 95       	ret

00001b6e <GPRMC>:
    1b6e:	0e 94 22 09 	call	0x1244	; 0x1244 <uart_getc>
    1b72:	80 93 71 06 	sts	0x0671, r24
    1b76:	e0 91 65 06 	lds	r30, 0x0665
    1b7a:	8c 32       	cpi	r24, 0x2C	; 44
    1b7c:	49 f0       	breq	.+18     	; 0x1b90 <GPRMC+0x22>
    1b7e:	ae 2f       	mov	r26, r30
    1b80:	b0 e0       	ldi	r27, 0x00	; 0
    1b82:	ac 57       	subi	r26, 0x7C	; 124
    1b84:	b9 4f       	sbci	r27, 0xF9	; 249
    1b86:	8c 93       	st	X, r24
    1b88:	ef 5f       	subi	r30, 0xFF	; 255
    1b8a:	e0 93 65 06 	sts	0x0665, r30
    1b8e:	ef cf       	rjmp	.-34     	; 0x1b6e <GPRMC>
    1b90:	f0 e0       	ldi	r31, 0x00	; 0
    1b92:	ec 57       	subi	r30, 0x7C	; 124
    1b94:	f9 4f       	sbci	r31, 0xF9	; 249
    1b96:	10 82       	st	Z, r1
    1b98:	10 92 65 06 	sts	0x0665, r1
    1b9c:	0e 94 22 09 	call	0x1244	; 0x1244 <uart_getc>
    1ba0:	80 93 71 06 	sts	0x0671, r24
    1ba4:	8c 32       	cpi	r24, 0x2C	; 44
    1ba6:	19 f0       	breq	.+6      	; 0x1bae <GPRMC+0x40>
    1ba8:	80 93 0e 07 	sts	0x070E, r24
    1bac:	f7 cf       	rjmp	.-18     	; 0x1b9c <GPRMC+0x2e>
    1bae:	0e 94 22 09 	call	0x1244	; 0x1244 <uart_getc>
    1bb2:	80 93 71 06 	sts	0x0671, r24
    1bb6:	e0 91 65 06 	lds	r30, 0x0665
    1bba:	8c 32       	cpi	r24, 0x2C	; 44
    1bbc:	49 f0       	breq	.+18     	; 0x1bd0 <GPRMC+0x62>
    1bbe:	ae 2f       	mov	r26, r30
    1bc0:	b0 e0       	ldi	r27, 0x00	; 0
    1bc2:	ae 51       	subi	r26, 0x1E	; 30
    1bc4:	b9 4f       	sbci	r27, 0xF9	; 249
    1bc6:	8c 93       	st	X, r24
    1bc8:	ef 5f       	subi	r30, 0xFF	; 255
    1bca:	e0 93 65 06 	sts	0x0665, r30
    1bce:	ef cf       	rjmp	.-34     	; 0x1bae <GPRMC+0x40>
    1bd0:	f0 e0       	ldi	r31, 0x00	; 0
    1bd2:	ee 51       	subi	r30, 0x1E	; 30
    1bd4:	f9 4f       	sbci	r31, 0xF9	; 249
    1bd6:	10 82       	st	Z, r1
    1bd8:	10 92 65 06 	sts	0x0665, r1
    1bdc:	0e 94 22 09 	call	0x1244	; 0x1244 <uart_getc>
    1be0:	80 93 71 06 	sts	0x0671, r24
    1be4:	8c 32       	cpi	r24, 0x2C	; 44
    1be6:	19 f0       	breq	.+6      	; 0x1bee <GPRMC+0x80>
    1be8:	80 93 66 06 	sts	0x0666, r24
    1bec:	f7 cf       	rjmp	.-18     	; 0x1bdc <GPRMC+0x6e>
    1bee:	0e 94 22 09 	call	0x1244	; 0x1244 <uart_getc>
    1bf2:	80 93 71 06 	sts	0x0671, r24
    1bf6:	e0 91 65 06 	lds	r30, 0x0665
    1bfa:	8c 32       	cpi	r24, 0x2C	; 44
    1bfc:	49 f0       	breq	.+18     	; 0x1c10 <GPRMC+0xa2>
    1bfe:	ae 2f       	mov	r26, r30
    1c00:	b0 e0       	ldi	r27, 0x00	; 0
    1c02:	ae 58       	subi	r26, 0x8E	; 142
    1c04:	b9 4f       	sbci	r27, 0xF9	; 249
    1c06:	8c 93       	st	X, r24
    1c08:	ef 5f       	subi	r30, 0xFF	; 255
    1c0a:	e0 93 65 06 	sts	0x0665, r30
    1c0e:	ef cf       	rjmp	.-34     	; 0x1bee <GPRMC+0x80>
    1c10:	f0 e0       	ldi	r31, 0x00	; 0
    1c12:	ee 58       	subi	r30, 0x8E	; 142
    1c14:	f9 4f       	sbci	r31, 0xF9	; 249
    1c16:	10 82       	st	Z, r1
    1c18:	10 92 65 06 	sts	0x0665, r1
    1c1c:	0e 94 22 09 	call	0x1244	; 0x1244 <uart_getc>
    1c20:	80 93 71 06 	sts	0x0671, r24
    1c24:	8c 32       	cpi	r24, 0x2C	; 44
    1c26:	19 f0       	breq	.+6      	; 0x1c2e <GPRMC+0xc0>
    1c28:	80 93 67 06 	sts	0x0667, r24
    1c2c:	f7 cf       	rjmp	.-18     	; 0x1c1c <GPRMC+0xae>
    1c2e:	0e 94 22 09 	call	0x1244	; 0x1244 <uart_getc>
    1c32:	80 93 71 06 	sts	0x0671, r24
    1c36:	e0 91 65 06 	lds	r30, 0x0665
    1c3a:	8c 32       	cpi	r24, 0x2C	; 44
    1c3c:	49 f0       	breq	.+18     	; 0x1c50 <GPRMC+0xe2>
    1c3e:	ae 2f       	mov	r26, r30
    1c40:	b0 e0       	ldi	r27, 0x00	; 0
    1c42:	a3 51       	subi	r26, 0x13	; 19
    1c44:	b9 4f       	sbci	r27, 0xF9	; 249
    1c46:	8c 93       	st	X, r24
    1c48:	ef 5f       	subi	r30, 0xFF	; 255
    1c4a:	e0 93 65 06 	sts	0x0665, r30
    1c4e:	ef cf       	rjmp	.-34     	; 0x1c2e <GPRMC+0xc0>
    1c50:	f0 e0       	ldi	r31, 0x00	; 0
    1c52:	e3 51       	subi	r30, 0x13	; 19
    1c54:	f9 4f       	sbci	r31, 0xF9	; 249
    1c56:	10 82       	st	Z, r1
    1c58:	10 92 65 06 	sts	0x0665, r1
    1c5c:	0e 94 22 09 	call	0x1244	; 0x1244 <uart_getc>
    1c60:	80 93 71 06 	sts	0x0671, r24
    1c64:	8c 32       	cpi	r24, 0x2C	; 44
    1c66:	d1 f7       	brne	.-12     	; 0x1c5c <GPRMC+0xee>
    1c68:	0e 94 22 09 	call	0x1244	; 0x1244 <uart_getc>
    1c6c:	80 93 71 06 	sts	0x0671, r24
    1c70:	e0 91 65 06 	lds	r30, 0x0665
    1c74:	8c 32       	cpi	r24, 0x2C	; 44
    1c76:	49 f0       	breq	.+18     	; 0x1c8a <GPRMC+0x11c>
    1c78:	ae 2f       	mov	r26, r30
    1c7a:	b0 e0       	ldi	r27, 0x00	; 0
    1c7c:	a4 50       	subi	r26, 0x04	; 4
    1c7e:	b9 4f       	sbci	r27, 0xF9	; 249
    1c80:	8c 93       	st	X, r24
    1c82:	ef 5f       	subi	r30, 0xFF	; 255
    1c84:	e0 93 65 06 	sts	0x0665, r30
    1c88:	ef cf       	rjmp	.-34     	; 0x1c68 <GPRMC+0xfa>
    1c8a:	f0 e0       	ldi	r31, 0x00	; 0
    1c8c:	e4 50       	subi	r30, 0x04	; 4
    1c8e:	f9 4f       	sbci	r31, 0xF9	; 249
    1c90:	10 82       	st	Z, r1
    1c92:	10 92 65 06 	sts	0x0665, r1
    1c96:	08 95       	ret

00001c98 <GPGGA>:
    1c98:	0e 94 22 09 	call	0x1244	; 0x1244 <uart_getc>
    1c9c:	80 93 71 06 	sts	0x0671, r24
    1ca0:	8c 32       	cpi	r24, 0x2C	; 44
    1ca2:	29 f4       	brne	.+10     	; 0x1cae <GPGGA+0x16>
    1ca4:	80 91 e1 06 	lds	r24, 0x06E1
    1ca8:	8f 5f       	subi	r24, 0xFF	; 255
    1caa:	80 93 e1 06 	sts	0x06E1, r24
    1cae:	80 91 e1 06 	lds	r24, 0x06E1
    1cb2:	86 30       	cpi	r24, 0x06	; 6
    1cb4:	89 f7       	brne	.-30     	; 0x1c98 <GPGGA>
    1cb6:	0e 94 22 09 	call	0x1244	; 0x1244 <uart_getc>
    1cba:	80 93 71 06 	sts	0x0671, r24
    1cbe:	e0 91 65 06 	lds	r30, 0x0665
    1cc2:	8c 32       	cpi	r24, 0x2C	; 44
    1cc4:	49 f0       	breq	.+18     	; 0x1cd8 <GPGGA+0x40>
    1cc6:	ae 2f       	mov	r26, r30
    1cc8:	b0 e0       	ldi	r27, 0x00	; 0
    1cca:	a2 59       	subi	r26, 0x92	; 146
    1ccc:	b9 4f       	sbci	r27, 0xF9	; 249
    1cce:	8c 93       	st	X, r24
    1cd0:	ef 5f       	subi	r30, 0xFF	; 255
    1cd2:	e0 93 65 06 	sts	0x0665, r30
    1cd6:	ef cf       	rjmp	.-34     	; 0x1cb6 <GPGGA+0x1e>
    1cd8:	f0 e0       	ldi	r31, 0x00	; 0
    1cda:	e2 59       	subi	r30, 0x92	; 146
    1cdc:	f9 4f       	sbci	r31, 0xF9	; 249
    1cde:	10 82       	st	Z, r1
    1ce0:	10 92 e1 06 	sts	0x06E1, r1
    1ce4:	10 92 65 06 	sts	0x0665, r1
    1ce8:	0e 94 22 09 	call	0x1244	; 0x1244 <uart_getc>
    1cec:	80 93 71 06 	sts	0x0671, r24
    1cf0:	8c 32       	cpi	r24, 0x2C	; 44
    1cf2:	d1 f7       	brne	.-12     	; 0x1ce8 <GPGGA+0x50>
    1cf4:	0e 94 22 09 	call	0x1244	; 0x1244 <uart_getc>
    1cf8:	80 93 71 06 	sts	0x0671, r24
    1cfc:	8c 32       	cpi	r24, 0x2C	; 44
    1cfe:	59 f0       	breq	.+22     	; 0x1d16 <GPGGA+0x7e>
    1d00:	90 91 65 06 	lds	r25, 0x0665
    1d04:	e9 2f       	mov	r30, r25
    1d06:	f0 e0       	ldi	r31, 0x00	; 0
    1d08:	e2 58       	subi	r30, 0x82	; 130
    1d0a:	f9 4f       	sbci	r31, 0xF9	; 249
    1d0c:	80 83       	st	Z, r24
    1d0e:	9f 5f       	subi	r25, 0xFF	; 255
    1d10:	90 93 65 06 	sts	0x0665, r25
    1d14:	ef cf       	rjmp	.-34     	; 0x1cf4 <GPGGA+0x5c>
    1d16:	10 92 65 06 	sts	0x0665, r1
    1d1a:	08 95       	ret

00001d1c <GPVTG>:
    1d1c:	0e 94 22 09 	call	0x1244	; 0x1244 <uart_getc>
    1d20:	80 93 71 06 	sts	0x0671, r24
    1d24:	8c 32       	cpi	r24, 0x2C	; 44
    1d26:	29 f4       	brne	.+10     	; 0x1d32 <GPVTG+0x16>
    1d28:	80 91 e1 06 	lds	r24, 0x06E1
    1d2c:	8f 5f       	subi	r24, 0xFF	; 255
    1d2e:	80 93 e1 06 	sts	0x06E1, r24
    1d32:	80 91 e1 06 	lds	r24, 0x06E1
    1d36:	86 30       	cpi	r24, 0x06	; 6
    1d38:	89 f7       	brne	.-30     	; 0x1d1c <GPVTG>
    1d3a:	0e 94 22 09 	call	0x1244	; 0x1244 <uart_getc>
    1d3e:	80 93 71 06 	sts	0x0671, r24
    1d42:	8c 32       	cpi	r24, 0x2C	; 44
    1d44:	59 f0       	breq	.+22     	; 0x1d5c <GPVTG+0x40>
    1d46:	90 91 65 06 	lds	r25, 0x0665
    1d4a:	e9 2f       	mov	r30, r25
    1d4c:	f0 e0       	ldi	r31, 0x00	; 0
    1d4e:	ed 5f       	subi	r30, 0xFD	; 253
    1d50:	f8 4f       	sbci	r31, 0xF8	; 248
    1d52:	80 83       	st	Z, r24
    1d54:	9f 5f       	subi	r25, 0xFF	; 255
    1d56:	90 93 65 06 	sts	0x0665, r25
    1d5a:	ef cf       	rjmp	.-34     	; 0x1d3a <GPVTG+0x1e>
    1d5c:	10 92 e1 06 	sts	0x06E1, r1
    1d60:	10 92 65 06 	sts	0x0665, r1
    1d64:	08 95       	ret

00001d66 <ramki_gps>:
    1d66:	80 91 60 01 	lds	r24, 0x0160
    1d6a:	88 23       	and	r24, r24
    1d6c:	09 f4       	brne	.+2      	; 0x1d70 <ramki_gps+0xa>
    1d6e:	46 c0       	rjmp	.+140    	; 0x1dfc <ramki_gps+0x96>
    1d70:	0e 94 22 09 	call	0x1244	; 0x1244 <uart_getc>
    1d74:	80 93 71 06 	sts	0x0671, r24
    1d78:	84 32       	cpi	r24, 0x24	; 36
    1d7a:	a9 f5       	brne	.+106    	; 0x1de6 <ramki_gps+0x80>
    1d7c:	0e 94 22 09 	call	0x1244	; 0x1244 <uart_getc>
    1d80:	80 93 71 06 	sts	0x0671, r24
    1d84:	e0 91 65 06 	lds	r30, 0x0665
    1d88:	8c 32       	cpi	r24, 0x2C	; 44
    1d8a:	49 f0       	breq	.+18     	; 0x1d9e <ramki_gps+0x38>
    1d8c:	ae 2f       	mov	r26, r30
    1d8e:	b0 e0       	ldi	r27, 0x00	; 0
    1d90:	ad 50       	subi	r26, 0x0D	; 13
    1d92:	b9 4f       	sbci	r27, 0xF9	; 249
    1d94:	8c 93       	st	X, r24
    1d96:	ef 5f       	subi	r30, 0xFF	; 255
    1d98:	e0 93 65 06 	sts	0x0665, r30
    1d9c:	ef cf       	rjmp	.-34     	; 0x1d7c <ramki_gps+0x16>
    1d9e:	f0 e0       	ldi	r31, 0x00	; 0
    1da0:	ed 50       	subi	r30, 0x0D	; 13
    1da2:	f9 4f       	sbci	r31, 0xF9	; 249
    1da4:	10 82       	st	Z, r1
    1da6:	10 92 65 06 	sts	0x0665, r1
    1daa:	6d e7       	ldi	r22, 0x7D	; 125
    1dac:	70 e0       	ldi	r23, 0x00	; 0
    1dae:	83 ef       	ldi	r24, 0xF3	; 243
    1db0:	96 e0       	ldi	r25, 0x06	; 6
    1db2:	0e 94 5c 12 	call	0x24b8	; 0x24b8 <strcmp>
    1db6:	00 97       	sbiw	r24, 0x00	; 0
    1db8:	11 f4       	brne	.+4      	; 0x1dbe <ramki_gps+0x58>
    1dba:	0e 94 b7 0d 	call	0x1b6e	; 0x1b6e <GPRMC>
    1dbe:	63 e8       	ldi	r22, 0x83	; 131
    1dc0:	70 e0       	ldi	r23, 0x00	; 0
    1dc2:	83 ef       	ldi	r24, 0xF3	; 243
    1dc4:	96 e0       	ldi	r25, 0x06	; 6
    1dc6:	0e 94 5c 12 	call	0x24b8	; 0x24b8 <strcmp>
    1dca:	00 97       	sbiw	r24, 0x00	; 0
    1dcc:	11 f4       	brne	.+4      	; 0x1dd2 <ramki_gps+0x6c>
    1dce:	0e 94 4c 0e 	call	0x1c98	; 0x1c98 <GPGGA>
    1dd2:	69 e8       	ldi	r22, 0x89	; 137
    1dd4:	70 e0       	ldi	r23, 0x00	; 0
    1dd6:	83 ef       	ldi	r24, 0xF3	; 243
    1dd8:	96 e0       	ldi	r25, 0x06	; 6
    1dda:	0e 94 5c 12 	call	0x24b8	; 0x24b8 <strcmp>
    1dde:	00 97       	sbiw	r24, 0x00	; 0
    1de0:	11 f4       	brne	.+4      	; 0x1de6 <ramki_gps+0x80>
    1de2:	0e 94 8e 0e 	call	0x1d1c	; 0x1d1c <GPVTG>
    1de6:	0e 94 22 09 	call	0x1244	; 0x1244 <uart_getc>
    1dea:	80 93 71 06 	sts	0x0671, r24
    1dee:	8a 30       	cpi	r24, 0x0A	; 10
    1df0:	d1 f7       	brne	.-12     	; 0x1de6 <ramki_gps+0x80>
    1df2:	80 91 60 01 	lds	r24, 0x0160
    1df6:	81 50       	subi	r24, 0x01	; 1
    1df8:	80 93 60 01 	sts	0x0160, r24
    1dfc:	08 95       	ret

00001dfe <big_date>:
    1dfe:	ef 92       	push	r14
    1e00:	ff 92       	push	r15
    1e02:	0f 93       	push	r16
    1e04:	0e 94 b3 0e 	call	0x1d66	; 0x1d66 <ramki_gps>
    1e08:	0e 94 90 0c 	call	0x1920	; 0x1920 <battery>
    1e0c:	0e 94 ef 0c 	call	0x19de	; 0x19de <show_status>
    1e10:	23 e6       	ldi	r18, 0x63	; 99
    1e12:	32 e0       	ldi	r19, 0x02	; 2
    1e14:	40 91 fc 06 	lds	r20, 0x06FC
    1e18:	64 e1       	ldi	r22, 0x14	; 20
    1e1a:	88 e0       	ldi	r24, 0x08	; 8
    1e1c:	0e 94 e2 0a 	call	0x15c4	; 0x15c4 <SH1106_char3216>
    1e20:	23 e6       	ldi	r18, 0x63	; 99
    1e22:	32 e0       	ldi	r19, 0x02	; 2
    1e24:	40 91 fd 06 	lds	r20, 0x06FD
    1e28:	64 e1       	ldi	r22, 0x14	; 20
    1e2a:	88 e1       	ldi	r24, 0x18	; 24
    1e2c:	0e 94 e2 0a 	call	0x15c4	; 0x15c4 <SH1106_char3216>
    1e30:	73 e6       	ldi	r23, 0x63	; 99
    1e32:	e7 2e       	mov	r14, r23
    1e34:	72 e0       	ldi	r23, 0x02	; 2
    1e36:	f7 2e       	mov	r15, r23
    1e38:	01 e0       	ldi	r16, 0x01	; 1
    1e3a:	20 e1       	ldi	r18, 0x10	; 16
    1e3c:	4f e2       	ldi	r20, 0x2F	; 47
    1e3e:	64 e2       	ldi	r22, 0x24	; 36
    1e40:	88 e2       	ldi	r24, 0x28	; 40
    1e42:	0e 94 34 0b 	call	0x1668	; 0x1668 <SH1106_char>
    1e46:	97 01       	movw	r18, r14
    1e48:	40 91 fe 06 	lds	r20, 0x06FE
    1e4c:	64 e1       	ldi	r22, 0x14	; 20
    1e4e:	80 e3       	ldi	r24, 0x30	; 48
    1e50:	0e 94 e2 0a 	call	0x15c4	; 0x15c4 <SH1106_char3216>
    1e54:	97 01       	movw	r18, r14
    1e56:	40 91 ff 06 	lds	r20, 0x06FF
    1e5a:	64 e1       	ldi	r22, 0x14	; 20
    1e5c:	80 e4       	ldi	r24, 0x40	; 64
    1e5e:	0e 94 e2 0a 	call	0x15c4	; 0x15c4 <SH1106_char3216>
    1e62:	20 e1       	ldi	r18, 0x10	; 16
    1e64:	4f e2       	ldi	r20, 0x2F	; 47
    1e66:	64 e2       	ldi	r22, 0x24	; 36
    1e68:	80 e5       	ldi	r24, 0x50	; 80
    1e6a:	0e 94 34 0b 	call	0x1668	; 0x1668 <SH1106_char>
    1e6e:	97 01       	movw	r18, r14
    1e70:	40 91 00 07 	lds	r20, 0x0700
    1e74:	64 e1       	ldi	r22, 0x14	; 20
    1e76:	88 e5       	ldi	r24, 0x58	; 88
    1e78:	0e 94 e2 0a 	call	0x15c4	; 0x15c4 <SH1106_char3216>
    1e7c:	97 01       	movw	r18, r14
    1e7e:	40 91 01 07 	lds	r20, 0x0701
    1e82:	64 e1       	ldi	r22, 0x14	; 20
    1e84:	88 e6       	ldi	r24, 0x68	; 104
    1e86:	0e 94 e2 0a 	call	0x15c4	; 0x15c4 <SH1106_char3216>
    1e8a:	2c e0       	ldi	r18, 0x0C	; 12
    1e8c:	4f e8       	ldi	r20, 0x8F	; 143
    1e8e:	50 e0       	ldi	r21, 0x00	; 0
    1e90:	64 e3       	ldi	r22, 0x34	; 52
    1e92:	80 e3       	ldi	r24, 0x30	; 48
    1e94:	0e 94 b2 0b 	call	0x1764	; 0x1764 <SH1106_string>
    1e98:	0e 94 14 0a 	call	0x1428	; 0x1428 <display_ada>
    1e9c:	c7 01       	movw	r24, r14
    1e9e:	0f 91       	pop	r16
    1ea0:	ff 90       	pop	r15
    1ea2:	ef 90       	pop	r14
    1ea4:	0c 94 e0 09 	jmp	0x13c0	; 0x13c0 <sh1106_clear>

00001ea8 <big_long_lat>:
    1ea8:	ef 92       	push	r14
    1eaa:	ff 92       	push	r15
    1eac:	0f 93       	push	r16
    1eae:	0e 94 b3 0e 	call	0x1d66	; 0x1d66 <ramki_gps>
    1eb2:	0e 94 90 0c 	call	0x1920	; 0x1920 <battery>
    1eb6:	0e 94 ef 0c 	call	0x19de	; 0x19de <show_status>
    1eba:	e3 e6       	ldi	r30, 0x63	; 99
    1ebc:	ee 2e       	mov	r14, r30
    1ebe:	e2 e0       	ldi	r30, 0x02	; 2
    1ec0:	fe 2e       	mov	r15, r30
    1ec2:	01 e0       	ldi	r16, 0x01	; 1
    1ec4:	20 e1       	ldi	r18, 0x10	; 16
    1ec6:	40 91 e2 06 	lds	r20, 0x06E2
    1eca:	64 e1       	ldi	r22, 0x14	; 20
    1ecc:	84 e1       	ldi	r24, 0x14	; 20
    1ece:	0e 94 34 0b 	call	0x1668	; 0x1668 <SH1106_char>
    1ed2:	20 e1       	ldi	r18, 0x10	; 16
    1ed4:	40 91 e3 06 	lds	r20, 0x06E3
    1ed8:	64 e1       	ldi	r22, 0x14	; 20
    1eda:	8c e1       	ldi	r24, 0x1C	; 28
    1edc:	0e 94 34 0b 	call	0x1668	; 0x1668 <SH1106_char>
    1ee0:	20 e1       	ldi	r18, 0x10	; 16
    1ee2:	44 e9       	ldi	r20, 0x94	; 148
    1ee4:	50 e0       	ldi	r21, 0x00	; 0
    1ee6:	64 e1       	ldi	r22, 0x14	; 20
    1ee8:	84 e2       	ldi	r24, 0x24	; 36
    1eea:	0e 94 b2 0b 	call	0x1764	; 0x1764 <SH1106_string>
    1eee:	20 e1       	ldi	r18, 0x10	; 16
    1ef0:	40 91 e4 06 	lds	r20, 0x06E4
    1ef4:	64 e1       	ldi	r22, 0x14	; 20
    1ef6:	8c e2       	ldi	r24, 0x2C	; 44
    1ef8:	0e 94 34 0b 	call	0x1668	; 0x1668 <SH1106_char>
    1efc:	20 e1       	ldi	r18, 0x10	; 16
    1efe:	40 91 e5 06 	lds	r20, 0x06E5
    1f02:	64 e1       	ldi	r22, 0x14	; 20
    1f04:	84 e3       	ldi	r24, 0x34	; 52
    1f06:	0e 94 34 0b 	call	0x1668	; 0x1668 <SH1106_char>
    1f0a:	20 e1       	ldi	r18, 0x10	; 16
    1f0c:	47 e9       	ldi	r20, 0x97	; 151
    1f0e:	50 e0       	ldi	r21, 0x00	; 0
    1f10:	64 e1       	ldi	r22, 0x14	; 20
    1f12:	8c e3       	ldi	r24, 0x3C	; 60
    1f14:	0e 94 b2 0b 	call	0x1764	; 0x1764 <SH1106_string>
    1f18:	20 e1       	ldi	r18, 0x10	; 16
    1f1a:	40 91 e7 06 	lds	r20, 0x06E7
    1f1e:	64 e1       	ldi	r22, 0x14	; 20
    1f20:	84 e4       	ldi	r24, 0x44	; 68
    1f22:	0e 94 34 0b 	call	0x1668	; 0x1668 <SH1106_char>
    1f26:	20 e1       	ldi	r18, 0x10	; 16
    1f28:	40 91 e8 06 	lds	r20, 0x06E8
    1f2c:	64 e1       	ldi	r22, 0x14	; 20
    1f2e:	8c e4       	ldi	r24, 0x4C	; 76
    1f30:	0e 94 34 0b 	call	0x1668	; 0x1668 <SH1106_char>
    1f34:	20 e1       	ldi	r18, 0x10	; 16
    1f36:	40 91 e9 06 	lds	r20, 0x06E9
    1f3a:	64 e1       	ldi	r22, 0x14	; 20
    1f3c:	84 e5       	ldi	r24, 0x54	; 84
    1f3e:	0e 94 34 0b 	call	0x1668	; 0x1668 <SH1106_char>
    1f42:	20 e1       	ldi	r18, 0x10	; 16
    1f44:	46 e9       	ldi	r20, 0x96	; 150
    1f46:	50 e0       	ldi	r21, 0x00	; 0
    1f48:	64 e1       	ldi	r22, 0x14	; 20
    1f4a:	8c e5       	ldi	r24, 0x5C	; 92
    1f4c:	0e 94 b2 0b 	call	0x1764	; 0x1764 <SH1106_string>
    1f50:	20 e1       	ldi	r18, 0x10	; 16
    1f52:	40 91 66 06 	lds	r20, 0x0666
    1f56:	64 e1       	ldi	r22, 0x14	; 20
    1f58:	8c e6       	ldi	r24, 0x6C	; 108
    1f5a:	0e 94 34 0b 	call	0x1668	; 0x1668 <SH1106_char>
    1f5e:	20 e1       	ldi	r18, 0x10	; 16
    1f60:	40 91 73 06 	lds	r20, 0x0673
    1f64:	64 e2       	ldi	r22, 0x24	; 36
    1f66:	84 e1       	ldi	r24, 0x14	; 20
    1f68:	0e 94 34 0b 	call	0x1668	; 0x1668 <SH1106_char>
    1f6c:	20 e1       	ldi	r18, 0x10	; 16
    1f6e:	40 91 74 06 	lds	r20, 0x0674
    1f72:	64 e2       	ldi	r22, 0x24	; 36
    1f74:	8c e1       	ldi	r24, 0x1C	; 28
    1f76:	0e 94 34 0b 	call	0x1668	; 0x1668 <SH1106_char>
    1f7a:	20 e1       	ldi	r18, 0x10	; 16
    1f7c:	44 e9       	ldi	r20, 0x94	; 148
    1f7e:	50 e0       	ldi	r21, 0x00	; 0
    1f80:	64 e2       	ldi	r22, 0x24	; 36
    1f82:	84 e2       	ldi	r24, 0x24	; 36
    1f84:	0e 94 b2 0b 	call	0x1764	; 0x1764 <SH1106_string>
    1f88:	20 e1       	ldi	r18, 0x10	; 16
    1f8a:	40 91 75 06 	lds	r20, 0x0675
    1f8e:	64 e2       	ldi	r22, 0x24	; 36
    1f90:	8c e2       	ldi	r24, 0x2C	; 44
    1f92:	0e 94 34 0b 	call	0x1668	; 0x1668 <SH1106_char>
    1f96:	20 e1       	ldi	r18, 0x10	; 16
    1f98:	40 91 76 06 	lds	r20, 0x0676
    1f9c:	64 e2       	ldi	r22, 0x24	; 36
    1f9e:	84 e3       	ldi	r24, 0x34	; 52
    1fa0:	0e 94 34 0b 	call	0x1668	; 0x1668 <SH1106_char>
    1fa4:	20 e1       	ldi	r18, 0x10	; 16
    1fa6:	47 e9       	ldi	r20, 0x97	; 151
    1fa8:	50 e0       	ldi	r21, 0x00	; 0
    1faa:	64 e2       	ldi	r22, 0x24	; 36
    1fac:	8c e3       	ldi	r24, 0x3C	; 60
    1fae:	0e 94 b2 0b 	call	0x1764	; 0x1764 <SH1106_string>
    1fb2:	20 e1       	ldi	r18, 0x10	; 16
    1fb4:	40 91 78 06 	lds	r20, 0x0678
    1fb8:	64 e2       	ldi	r22, 0x24	; 36
    1fba:	84 e4       	ldi	r24, 0x44	; 68
    1fbc:	0e 94 34 0b 	call	0x1668	; 0x1668 <SH1106_char>
    1fc0:	20 e1       	ldi	r18, 0x10	; 16
    1fc2:	40 91 79 06 	lds	r20, 0x0679
    1fc6:	64 e2       	ldi	r22, 0x24	; 36
    1fc8:	8c e4       	ldi	r24, 0x4C	; 76
    1fca:	0e 94 34 0b 	call	0x1668	; 0x1668 <SH1106_char>
    1fce:	20 e1       	ldi	r18, 0x10	; 16
    1fd0:	40 91 7a 06 	lds	r20, 0x067A
    1fd4:	64 e2       	ldi	r22, 0x24	; 36
    1fd6:	84 e5       	ldi	r24, 0x54	; 84
    1fd8:	0e 94 34 0b 	call	0x1668	; 0x1668 <SH1106_char>
    1fdc:	20 e1       	ldi	r18, 0x10	; 16
    1fde:	46 e9       	ldi	r20, 0x96	; 150
    1fe0:	50 e0       	ldi	r21, 0x00	; 0
    1fe2:	64 e2       	ldi	r22, 0x24	; 36
    1fe4:	8c e5       	ldi	r24, 0x5C	; 92
    1fe6:	0e 94 b2 0b 	call	0x1764	; 0x1764 <SH1106_string>
    1fea:	20 e1       	ldi	r18, 0x10	; 16
    1fec:	40 91 67 06 	lds	r20, 0x0667
    1ff0:	64 e2       	ldi	r22, 0x24	; 36
    1ff2:	8c e6       	ldi	r24, 0x6C	; 108
    1ff4:	0e 94 34 0b 	call	0x1668	; 0x1668 <SH1106_char>
    1ff8:	2c e0       	ldi	r18, 0x0C	; 12
    1ffa:	49 e9       	ldi	r20, 0x99	; 153
    1ffc:	50 e0       	ldi	r21, 0x00	; 0
    1ffe:	64 e3       	ldi	r22, 0x34	; 52
    2000:	81 e0       	ldi	r24, 0x01	; 1
    2002:	0e 94 b2 0b 	call	0x1764	; 0x1764 <SH1106_string>
    2006:	0e 94 14 0a 	call	0x1428	; 0x1428 <display_ada>
    200a:	c7 01       	movw	r24, r14
    200c:	0f 91       	pop	r16
    200e:	ff 90       	pop	r15
    2010:	ef 90       	pop	r14
    2012:	0c 94 e0 09 	jmp	0x13c0	; 0x13c0 <sh1106_clear>

00002016 <big_altitde>:
    2016:	ef 92       	push	r14
    2018:	ff 92       	push	r15
    201a:	0f 93       	push	r16
    201c:	0e 94 b3 0e 	call	0x1d66	; 0x1d66 <ramki_gps>
    2020:	0e 94 90 0c 	call	0x1920	; 0x1920 <battery>
    2024:	0e 94 ef 0c 	call	0x19de	; 0x19de <show_status>
    2028:	23 e6       	ldi	r18, 0x63	; 99
    202a:	32 e0       	ldi	r19, 0x02	; 2
    202c:	40 91 7e 06 	lds	r20, 0x067E
    2030:	64 e1       	ldi	r22, 0x14	; 20
    2032:	84 e0       	ldi	r24, 0x04	; 4
    2034:	0e 94 e2 0a 	call	0x15c4	; 0x15c4 <SH1106_char3216>
    2038:	23 e6       	ldi	r18, 0x63	; 99
    203a:	32 e0       	ldi	r19, 0x02	; 2
    203c:	40 91 7f 06 	lds	r20, 0x067F
    2040:	64 e1       	ldi	r22, 0x14	; 20
    2042:	84 e1       	ldi	r24, 0x14	; 20
    2044:	0e 94 e2 0a 	call	0x15c4	; 0x15c4 <SH1106_char3216>
    2048:	23 e6       	ldi	r18, 0x63	; 99
    204a:	32 e0       	ldi	r19, 0x02	; 2
    204c:	40 91 80 06 	lds	r20, 0x0680
    2050:	64 e1       	ldi	r22, 0x14	; 20
    2052:	84 e2       	ldi	r24, 0x24	; 36
    2054:	0e 94 e2 0a 	call	0x15c4	; 0x15c4 <SH1106_char3216>
    2058:	23 e6       	ldi	r18, 0x63	; 99
    205a:	32 e0       	ldi	r19, 0x02	; 2
    205c:	40 91 81 06 	lds	r20, 0x0681
    2060:	64 e1       	ldi	r22, 0x14	; 20
    2062:	84 e3       	ldi	r24, 0x34	; 52
    2064:	0e 94 e2 0a 	call	0x15c4	; 0x15c4 <SH1106_char3216>
    2068:	23 e6       	ldi	r18, 0x63	; 99
    206a:	32 e0       	ldi	r19, 0x02	; 2
    206c:	40 91 82 06 	lds	r20, 0x0682
    2070:	64 e1       	ldi	r22, 0x14	; 20
    2072:	84 e4       	ldi	r24, 0x44	; 68
    2074:	0e 94 e2 0a 	call	0x15c4	; 0x15c4 <SH1106_char3216>
    2078:	f3 e6       	ldi	r31, 0x63	; 99
    207a:	ef 2e       	mov	r14, r31
    207c:	f2 e0       	ldi	r31, 0x02	; 2
    207e:	ff 2e       	mov	r15, r31
    2080:	01 e0       	ldi	r16, 0x01	; 1
    2082:	20 e1       	ldi	r18, 0x10	; 16
    2084:	4f ea       	ldi	r20, 0xAF	; 175
    2086:	50 e0       	ldi	r21, 0x00	; 0
    2088:	64 e2       	ldi	r22, 0x24	; 36
    208a:	84 e5       	ldi	r24, 0x54	; 84
    208c:	0e 94 b2 0b 	call	0x1764	; 0x1764 <SH1106_string>
    2090:	2c e0       	ldi	r18, 0x0C	; 12
    2092:	45 eb       	ldi	r20, 0xB5	; 181
    2094:	50 e0       	ldi	r21, 0x00	; 0
    2096:	64 e3       	ldi	r22, 0x34	; 52
    2098:	88 e2       	ldi	r24, 0x28	; 40
    209a:	0e 94 b2 0b 	call	0x1764	; 0x1764 <SH1106_string>
    209e:	0e 94 14 0a 	call	0x1428	; 0x1428 <display_ada>
    20a2:	c7 01       	movw	r24, r14
    20a4:	0f 91       	pop	r16
    20a6:	ff 90       	pop	r15
    20a8:	ef 90       	pop	r14
    20aa:	0c 94 e0 09 	jmp	0x13c0	; 0x13c0 <sh1106_clear>

000020ae <big_temperature>:
    20ae:	ef 92       	push	r14
    20b0:	ff 92       	push	r15
    20b2:	0f 93       	push	r16
    20b4:	0e 94 b3 0e 	call	0x1d66	; 0x1d66 <ramki_gps>
    20b8:	0e 94 90 0c 	call	0x1920	; 0x1920 <battery>
    20bc:	0e 94 ef 0c 	call	0x19de	; 0x19de <show_status>
    20c0:	80 91 e0 06 	lds	r24, 0x06E0
    20c4:	81 30       	cpi	r24, 0x01	; 1
    20c6:	d1 f4       	brne	.+52     	; 0x20fc <big_temperature+0x4e>
    20c8:	80 91 09 07 	lds	r24, 0x0709
    20cc:	90 91 0a 07 	lds	r25, 0x070A
    20d0:	0e 94 67 0c 	call	0x18ce	; 0x18ce <adc_to_temp>
    20d4:	9f 93       	push	r25
    20d6:	8f 93       	push	r24
    20d8:	80 e6       	ldi	r24, 0x60	; 96
    20da:	90 e0       	ldi	r25, 0x00	; 0
    20dc:	9f 93       	push	r25
    20de:	8f 93       	push	r24
    20e0:	88 e6       	ldi	r24, 0x68	; 104
    20e2:	96 e0       	ldi	r25, 0x06	; 6
    20e4:	9f 93       	push	r25
    20e6:	8f 93       	push	r24
    20e8:	0e 94 65 12 	call	0x24ca	; 0x24ca <sprintf>
    20ec:	10 92 e0 06 	sts	0x06E0, r1
    20f0:	0f 90       	pop	r0
    20f2:	0f 90       	pop	r0
    20f4:	0f 90       	pop	r0
    20f6:	0f 90       	pop	r0
    20f8:	0f 90       	pop	r0
    20fa:	0f 90       	pop	r0
    20fc:	0e 94 ff 0b 	call	0x17fe	; 0x17fe <pomiar4>
    2100:	90 93 0a 07 	sts	0x070A, r25
    2104:	80 93 09 07 	sts	0x0709, r24
    2108:	23 e6       	ldi	r18, 0x63	; 99
    210a:	32 e0       	ldi	r19, 0x02	; 2
    210c:	40 91 68 06 	lds	r20, 0x0668
    2110:	64 e1       	ldi	r22, 0x14	; 20
    2112:	80 e3       	ldi	r24, 0x30	; 48
    2114:	0e 94 e2 0a 	call	0x15c4	; 0x15c4 <SH1106_char3216>
    2118:	23 e6       	ldi	r18, 0x63	; 99
    211a:	32 e0       	ldi	r19, 0x02	; 2
    211c:	40 91 69 06 	lds	r20, 0x0669
    2120:	64 e1       	ldi	r22, 0x14	; 20
    2122:	80 e4       	ldi	r24, 0x40	; 64
    2124:	0e 94 e2 0a 	call	0x15c4	; 0x15c4 <SH1106_char3216>
    2128:	a3 e6       	ldi	r26, 0x63	; 99
    212a:	ea 2e       	mov	r14, r26
    212c:	a2 e0       	ldi	r26, 0x02	; 2
    212e:	fa 2e       	mov	r15, r26
    2130:	01 e0       	ldi	r16, 0x01	; 1
    2132:	20 e1       	ldi	r18, 0x10	; 16
    2134:	4e eb       	ldi	r20, 0xBE	; 190
    2136:	50 e0       	ldi	r21, 0x00	; 0
    2138:	64 e2       	ldi	r22, 0x24	; 36
    213a:	80 e5       	ldi	r24, 0x50	; 80
    213c:	0e 94 b2 0b 	call	0x1764	; 0x1764 <SH1106_string>
    2140:	2c e0       	ldi	r18, 0x0C	; 12
    2142:	41 ec       	ldi	r20, 0xC1	; 193
    2144:	50 e0       	ldi	r21, 0x00	; 0
    2146:	64 e3       	ldi	r22, 0x34	; 52
    2148:	8f e1       	ldi	r24, 0x1F	; 31
    214a:	0e 94 b2 0b 	call	0x1764	; 0x1764 <SH1106_string>
    214e:	0e 94 14 0a 	call	0x1428	; 0x1428 <display_ada>
    2152:	c7 01       	movw	r24, r14
    2154:	0f 91       	pop	r16
    2156:	ff 90       	pop	r15
    2158:	ef 90       	pop	r14
    215a:	0c 94 e0 09 	jmp	0x13c0	; 0x13c0 <sh1106_clear>

0000215e <big_speed>:
    215e:	ef 92       	push	r14
    2160:	ff 92       	push	r15
    2162:	0f 93       	push	r16
    2164:	0e 94 b3 0e 	call	0x1d66	; 0x1d66 <ramki_gps>
    2168:	0e 94 90 0c 	call	0x1920	; 0x1920 <battery>
    216c:	0e 94 ef 0c 	call	0x19de	; 0x19de <show_status>
    2170:	23 e6       	ldi	r18, 0x63	; 99
    2172:	32 e0       	ldi	r19, 0x02	; 2
    2174:	40 91 03 07 	lds	r20, 0x0703
    2178:	64 e1       	ldi	r22, 0x14	; 20
    217a:	88 e0       	ldi	r24, 0x08	; 8
    217c:	0e 94 e2 0a 	call	0x15c4	; 0x15c4 <SH1106_char3216>
    2180:	23 e6       	ldi	r18, 0x63	; 99
    2182:	32 e0       	ldi	r19, 0x02	; 2
    2184:	40 91 04 07 	lds	r20, 0x0704
    2188:	64 e1       	ldi	r22, 0x14	; 20
    218a:	88 e1       	ldi	r24, 0x18	; 24
    218c:	0e 94 e2 0a 	call	0x15c4	; 0x15c4 <SH1106_char3216>
    2190:	23 e6       	ldi	r18, 0x63	; 99
    2192:	32 e0       	ldi	r19, 0x02	; 2
    2194:	40 91 05 07 	lds	r20, 0x0705
    2198:	64 e1       	ldi	r22, 0x14	; 20
    219a:	88 e2       	ldi	r24, 0x28	; 40
    219c:	0e 94 e2 0a 	call	0x15c4	; 0x15c4 <SH1106_char3216>
    21a0:	23 e6       	ldi	r18, 0x63	; 99
    21a2:	32 e0       	ldi	r19, 0x02	; 2
    21a4:	40 91 06 07 	lds	r20, 0x0706
    21a8:	64 e1       	ldi	r22, 0x14	; 20
    21aa:	88 e3       	ldi	r24, 0x38	; 56
    21ac:	0e 94 e2 0a 	call	0x15c4	; 0x15c4 <SH1106_char3216>
    21b0:	23 e6       	ldi	r18, 0x63	; 99
    21b2:	32 e0       	ldi	r19, 0x02	; 2
    21b4:	40 91 07 07 	lds	r20, 0x0707
    21b8:	64 e1       	ldi	r22, 0x14	; 20
    21ba:	88 e4       	ldi	r24, 0x48	; 72
    21bc:	0e 94 e2 0a 	call	0x15c4	; 0x15c4 <SH1106_char3216>
    21c0:	b3 e6       	ldi	r27, 0x63	; 99
    21c2:	eb 2e       	mov	r14, r27
    21c4:	b2 e0       	ldi	r27, 0x02	; 2
    21c6:	fb 2e       	mov	r15, r27
    21c8:	01 e0       	ldi	r16, 0x01	; 1
    21ca:	20 e1       	ldi	r18, 0x10	; 16
    21cc:	4d ec       	ldi	r20, 0xCD	; 205
    21ce:	50 e0       	ldi	r21, 0x00	; 0
    21d0:	64 e2       	ldi	r22, 0x24	; 36
    21d2:	88 e5       	ldi	r24, 0x58	; 88
    21d4:	0e 94 b2 0b 	call	0x1764	; 0x1764 <SH1106_string>
    21d8:	2c e0       	ldi	r18, 0x0C	; 12
    21da:	42 ed       	ldi	r20, 0xD2	; 210
    21dc:	50 e0       	ldi	r21, 0x00	; 0
    21de:	64 e3       	ldi	r22, 0x34	; 52
    21e0:	82 e2       	ldi	r24, 0x22	; 34
    21e2:	0e 94 b2 0b 	call	0x1764	; 0x1764 <SH1106_string>
    21e6:	0e 94 14 0a 	call	0x1428	; 0x1428 <display_ada>
    21ea:	c7 01       	movw	r24, r14
    21ec:	0f 91       	pop	r16
    21ee:	ff 90       	pop	r15
    21f0:	ef 90       	pop	r14
    21f2:	0c 94 e0 09 	jmp	0x13c0	; 0x13c0 <sh1106_clear>

000021f6 <big_time>:
    21f6:	ef 92       	push	r14
    21f8:	ff 92       	push	r15
    21fa:	0f 93       	push	r16
    21fc:	0e 94 b3 0e 	call	0x1d66	; 0x1d66 <ramki_gps>
    2200:	0e 94 90 0c 	call	0x1920	; 0x1920 <battery>
    2204:	0e 94 ef 0c 	call	0x19de	; 0x19de <show_status>
    2208:	23 e6       	ldi	r18, 0x63	; 99
    220a:	32 e0       	ldi	r19, 0x02	; 2
    220c:	40 91 84 06 	lds	r20, 0x0684
    2210:	64 e1       	ldi	r22, 0x14	; 20
    2212:	80 e0       	ldi	r24, 0x00	; 0
    2214:	0e 94 e2 0a 	call	0x15c4	; 0x15c4 <SH1106_char3216>
    2218:	23 e6       	ldi	r18, 0x63	; 99
    221a:	32 e0       	ldi	r19, 0x02	; 2
    221c:	40 91 85 06 	lds	r20, 0x0685
    2220:	64 e1       	ldi	r22, 0x14	; 20
    2222:	80 e1       	ldi	r24, 0x10	; 16
    2224:	0e 94 e2 0a 	call	0x15c4	; 0x15c4 <SH1106_char3216>
    2228:	23 e6       	ldi	r18, 0x63	; 99
    222a:	32 e0       	ldi	r19, 0x02	; 2
    222c:	4a e3       	ldi	r20, 0x3A	; 58
    222e:	64 e1       	ldi	r22, 0x14	; 20
    2230:	80 e2       	ldi	r24, 0x20	; 32
    2232:	0e 94 e2 0a 	call	0x15c4	; 0x15c4 <SH1106_char3216>
    2236:	23 e6       	ldi	r18, 0x63	; 99
    2238:	32 e0       	ldi	r19, 0x02	; 2
    223a:	40 91 86 06 	lds	r20, 0x0686
    223e:	64 e1       	ldi	r22, 0x14	; 20
    2240:	80 e3       	ldi	r24, 0x30	; 48
    2242:	0e 94 e2 0a 	call	0x15c4	; 0x15c4 <SH1106_char3216>
    2246:	23 e6       	ldi	r18, 0x63	; 99
    2248:	32 e0       	ldi	r19, 0x02	; 2
    224a:	40 91 87 06 	lds	r20, 0x0687
    224e:	64 e1       	ldi	r22, 0x14	; 20
    2250:	80 e4       	ldi	r24, 0x40	; 64
    2252:	0e 94 e2 0a 	call	0x15c4	; 0x15c4 <SH1106_char3216>
    2256:	23 e6       	ldi	r18, 0x63	; 99
    2258:	32 e0       	ldi	r19, 0x02	; 2
    225a:	4a e3       	ldi	r20, 0x3A	; 58
    225c:	64 e1       	ldi	r22, 0x14	; 20
    225e:	80 e5       	ldi	r24, 0x50	; 80
    2260:	0e 94 e2 0a 	call	0x15c4	; 0x15c4 <SH1106_char3216>
    2264:	23 e6       	ldi	r18, 0x63	; 99
    2266:	32 e0       	ldi	r19, 0x02	; 2
    2268:	40 91 88 06 	lds	r20, 0x0688
    226c:	64 e1       	ldi	r22, 0x14	; 20
    226e:	80 e6       	ldi	r24, 0x60	; 96
    2270:	0e 94 e2 0a 	call	0x15c4	; 0x15c4 <SH1106_char3216>
    2274:	23 e6       	ldi	r18, 0x63	; 99
    2276:	32 e0       	ldi	r19, 0x02	; 2
    2278:	40 91 89 06 	lds	r20, 0x0689
    227c:	64 e1       	ldi	r22, 0x14	; 20
    227e:	80 e7       	ldi	r24, 0x70	; 112
    2280:	0e 94 e2 0a 	call	0x15c4	; 0x15c4 <SH1106_char3216>
    2284:	03 e6       	ldi	r16, 0x63	; 99
    2286:	e0 2e       	mov	r14, r16
    2288:	02 e0       	ldi	r16, 0x02	; 2
    228a:	f0 2e       	mov	r15, r16
    228c:	01 e0       	ldi	r16, 0x01	; 1
    228e:	2c e0       	ldi	r18, 0x0C	; 12
    2290:	48 ed       	ldi	r20, 0xD8	; 216
    2292:	50 e0       	ldi	r21, 0x00	; 0
    2294:	64 e3       	ldi	r22, 0x34	; 52
    2296:	80 e3       	ldi	r24, 0x30	; 48
    2298:	0e 94 b2 0b 	call	0x1764	; 0x1764 <SH1106_string>
    229c:	0e 94 14 0a 	call	0x1428	; 0x1428 <display_ada>
    22a0:	c7 01       	movw	r24, r14
    22a2:	0f 91       	pop	r16
    22a4:	ff 90       	pop	r15
    22a6:	ef 90       	pop	r14
    22a8:	0c 94 e0 09 	jmp	0x13c0	; 0x13c0 <sh1106_clear>

000022ac <main>:
    22ac:	37 9a       	sbi	0x06, 7	; 6
    22ae:	86 b1       	in	r24, 0x06	; 6
    22b0:	83 60       	ori	r24, 0x03	; 3
    22b2:	86 b9       	out	0x06, r24	; 6
    22b4:	87 b1       	in	r24, 0x07	; 7
    22b6:	80 6c       	ori	r24, 0xC0	; 192
    22b8:	87 b9       	out	0x07, r24	; 7
    22ba:	8a 9a       	sbi	0x11, 2	; 17
    22bc:	92 9a       	sbi	0x12, 2	; 18
    22be:	8f ef       	ldi	r24, 0xFF	; 255
    22c0:	97 e4       	ldi	r25, 0x47	; 71
    22c2:	01 97       	sbiw	r24, 0x01	; 1
    22c4:	f1 f7       	brne	.-4      	; 0x22c2 <main+0x16>
    22c6:	00 c0       	rjmp	.+0      	; 0x22c8 <main+0x1c>
    22c8:	00 00       	nop
    22ca:	92 98       	cbi	0x12, 2	; 18
    22cc:	a4 98       	cbi	0x14, 4	; 20
    22ce:	a5 98       	cbi	0x14, 5	; 20
    22d0:	ac 9a       	sbi	0x15, 4	; 21
    22d2:	ad 9a       	sbi	0x15, 5	; 21
    22d4:	0e 94 84 09 	call	0x1308	; 0x1308 <sh1106_begin>
    22d8:	83 e6       	ldi	r24, 0x63	; 99
    22da:	92 e0       	ldi	r25, 0x02	; 2
    22dc:	0e 94 e0 09 	call	0x13c0	; 0x13c0 <sh1106_clear>
    22e0:	83 b7       	in	r24, 0x33	; 51
    22e2:	88 60       	ori	r24, 0x08	; 8
    22e4:	83 bf       	out	0x33, r24	; 51
    22e6:	83 b7       	in	r24, 0x33	; 51
    22e8:	85 60       	ori	r24, 0x05	; 5
    22ea:	83 bf       	out	0x33, r24	; 51
    22ec:	88 e4       	ldi	r24, 0x48	; 72
    22ee:	8c bf       	out	0x3c, r24	; 60
    22f0:	89 b7       	in	r24, 0x39	; 57
    22f2:	82 60       	ori	r24, 0x02	; 2
    22f4:	89 bf       	out	0x39, r24	; 57
    22f6:	8f e2       	ldi	r24, 0x2F	; 47
    22f8:	90 e0       	ldi	r25, 0x00	; 0
    22fa:	0e 94 1b 09 	call	0x1236	; 0x1236 <USART_Init>
    22fe:	78 94       	sei
    2300:	0e 94 af 10 	call	0x215e	; 0x215e <big_speed>
    2304:	9d 99       	sbic	0x13, 5	; 19
    2306:	09 c0       	rjmp	.+18     	; 0x231a <main+0x6e>
    2308:	9f ef       	ldi	r25, 0xFF	; 255
    230a:	2f e1       	ldi	r18, 0x1F	; 31
    230c:	81 e0       	ldi	r24, 0x01	; 1
    230e:	91 50       	subi	r25, 0x01	; 1
    2310:	20 40       	sbci	r18, 0x00	; 0
    2312:	80 40       	sbci	r24, 0x00	; 0
    2314:	e1 f7       	brne	.-8      	; 0x230e <main+0x62>
    2316:	00 c0       	rjmp	.+0      	; 0x2318 <main+0x6c>
    2318:	00 00       	nop
    231a:	9d 9b       	sbis	0x13, 5	; 19
    231c:	79 c0       	rjmp	.+242    	; 0x2410 <main+0x164>
    231e:	9c 99       	sbic	0x13, 4	; 19
    2320:	09 c0       	rjmp	.+18     	; 0x2334 <main+0x88>
    2322:	9f ef       	ldi	r25, 0xFF	; 255
    2324:	2f e1       	ldi	r18, 0x1F	; 31
    2326:	81 e0       	ldi	r24, 0x01	; 1
    2328:	91 50       	subi	r25, 0x01	; 1
    232a:	20 40       	sbci	r18, 0x00	; 0
    232c:	80 40       	sbci	r24, 0x00	; 0
    232e:	e1 f7       	brne	.-8      	; 0x2328 <main+0x7c>
    2330:	00 c0       	rjmp	.+0      	; 0x2332 <main+0x86>
    2332:	00 00       	nop
    2334:	9c 99       	sbic	0x13, 4	; 19
    2336:	e4 cf       	rjmp	.-56     	; 0x2300 <main+0x54>
    2338:	0e 94 54 0f 	call	0x1ea8	; 0x1ea8 <big_long_lat>
    233c:	9d 99       	sbic	0x13, 5	; 19
    233e:	09 c0       	rjmp	.+18     	; 0x2352 <main+0xa6>
    2340:	9f ef       	ldi	r25, 0xFF	; 255
    2342:	2f e1       	ldi	r18, 0x1F	; 31
    2344:	81 e0       	ldi	r24, 0x01	; 1
    2346:	91 50       	subi	r25, 0x01	; 1
    2348:	20 40       	sbci	r18, 0x00	; 0
    234a:	80 40       	sbci	r24, 0x00	; 0
    234c:	e1 f7       	brne	.-8      	; 0x2346 <main+0x9a>
    234e:	00 c0       	rjmp	.+0      	; 0x2350 <main+0xa4>
    2350:	00 00       	nop
    2352:	9d 9b       	sbis	0x13, 5	; 19
    2354:	d7 cf       	rjmp	.-82     	; 0x2304 <main+0x58>
    2356:	9c 99       	sbic	0x13, 4	; 19
    2358:	09 c0       	rjmp	.+18     	; 0x236c <main+0xc0>
    235a:	9f ef       	ldi	r25, 0xFF	; 255
    235c:	2f e1       	ldi	r18, 0x1F	; 31
    235e:	81 e0       	ldi	r24, 0x01	; 1
    2360:	91 50       	subi	r25, 0x01	; 1
    2362:	20 40       	sbci	r18, 0x00	; 0
    2364:	80 40       	sbci	r24, 0x00	; 0
    2366:	e1 f7       	brne	.-8      	; 0x2360 <main+0xb4>
    2368:	00 c0       	rjmp	.+0      	; 0x236a <main+0xbe>
    236a:	00 00       	nop
    236c:	9c 99       	sbic	0x13, 4	; 19
    236e:	e4 cf       	rjmp	.-56     	; 0x2338 <main+0x8c>
    2370:	0e 94 0b 10 	call	0x2016	; 0x2016 <big_altitde>
    2374:	9d 99       	sbic	0x13, 5	; 19
    2376:	08 c0       	rjmp	.+16     	; 0x2388 <main+0xdc>
    2378:	9c ec       	ldi	r25, 0xCC	; 204
    237a:	2c ec       	ldi	r18, 0xCC	; 204
    237c:	81 e0       	ldi	r24, 0x01	; 1
    237e:	91 50       	subi	r25, 0x01	; 1
    2380:	20 40       	sbci	r18, 0x00	; 0
    2382:	80 40       	sbci	r24, 0x00	; 0
    2384:	e1 f7       	brne	.-8      	; 0x237e <main+0xd2>
    2386:	00 c0       	rjmp	.+0      	; 0x2388 <main+0xdc>
    2388:	9d 9b       	sbis	0x13, 5	; 19
    238a:	d8 cf       	rjmp	.-80     	; 0x233c <main+0x90>
    238c:	9c 99       	sbic	0x13, 4	; 19
    238e:	08 c0       	rjmp	.+16     	; 0x23a0 <main+0xf4>
    2390:	9c ec       	ldi	r25, 0xCC	; 204
    2392:	2c ec       	ldi	r18, 0xCC	; 204
    2394:	81 e0       	ldi	r24, 0x01	; 1
    2396:	91 50       	subi	r25, 0x01	; 1
    2398:	20 40       	sbci	r18, 0x00	; 0
    239a:	80 40       	sbci	r24, 0x00	; 0
    239c:	e1 f7       	brne	.-8      	; 0x2396 <main+0xea>
    239e:	00 c0       	rjmp	.+0      	; 0x23a0 <main+0xf4>
    23a0:	9c 99       	sbic	0x13, 4	; 19
    23a2:	e6 cf       	rjmp	.-52     	; 0x2370 <main+0xc4>
    23a4:	0e 94 57 10 	call	0x20ae	; 0x20ae <big_temperature>
    23a8:	9d 99       	sbic	0x13, 5	; 19
    23aa:	08 c0       	rjmp	.+16     	; 0x23bc <main+0x110>
    23ac:	9c ec       	ldi	r25, 0xCC	; 204
    23ae:	2c ec       	ldi	r18, 0xCC	; 204
    23b0:	81 e0       	ldi	r24, 0x01	; 1
    23b2:	91 50       	subi	r25, 0x01	; 1
    23b4:	20 40       	sbci	r18, 0x00	; 0
    23b6:	80 40       	sbci	r24, 0x00	; 0
    23b8:	e1 f7       	brne	.-8      	; 0x23b2 <main+0x106>
    23ba:	00 c0       	rjmp	.+0      	; 0x23bc <main+0x110>
    23bc:	9d 9b       	sbis	0x13, 5	; 19
    23be:	da cf       	rjmp	.-76     	; 0x2374 <main+0xc8>
    23c0:	9c 99       	sbic	0x13, 4	; 19
    23c2:	08 c0       	rjmp	.+16     	; 0x23d4 <main+0x128>
    23c4:	9c ec       	ldi	r25, 0xCC	; 204
    23c6:	2c ec       	ldi	r18, 0xCC	; 204
    23c8:	81 e0       	ldi	r24, 0x01	; 1
    23ca:	91 50       	subi	r25, 0x01	; 1
    23cc:	20 40       	sbci	r18, 0x00	; 0
    23ce:	80 40       	sbci	r24, 0x00	; 0
    23d0:	e1 f7       	brne	.-8      	; 0x23ca <main+0x11e>
    23d2:	00 c0       	rjmp	.+0      	; 0x23d4 <main+0x128>
    23d4:	9c 99       	sbic	0x13, 4	; 19
    23d6:	e6 cf       	rjmp	.-52     	; 0x23a4 <main+0xf8>
    23d8:	0e 94 fb 10 	call	0x21f6	; 0x21f6 <big_time>
    23dc:	9d 99       	sbic	0x13, 5	; 19
    23de:	08 c0       	rjmp	.+16     	; 0x23f0 <main+0x144>
    23e0:	9c ec       	ldi	r25, 0xCC	; 204
    23e2:	2c ec       	ldi	r18, 0xCC	; 204
    23e4:	81 e0       	ldi	r24, 0x01	; 1
    23e6:	91 50       	subi	r25, 0x01	; 1
    23e8:	20 40       	sbci	r18, 0x00	; 0
    23ea:	80 40       	sbci	r24, 0x00	; 0
    23ec:	e1 f7       	brne	.-8      	; 0x23e6 <main+0x13a>
    23ee:	00 c0       	rjmp	.+0      	; 0x23f0 <main+0x144>
    23f0:	9d 9b       	sbis	0x13, 5	; 19
    23f2:	da cf       	rjmp	.-76     	; 0x23a8 <main+0xfc>
    23f4:	9c 99       	sbic	0x13, 4	; 19
    23f6:	08 c0       	rjmp	.+16     	; 0x2408 <main+0x15c>
    23f8:	9c ec       	ldi	r25, 0xCC	; 204
    23fa:	2c ec       	ldi	r18, 0xCC	; 204
    23fc:	81 e0       	ldi	r24, 0x01	; 1
    23fe:	91 50       	subi	r25, 0x01	; 1
    2400:	20 40       	sbci	r18, 0x00	; 0
    2402:	80 40       	sbci	r24, 0x00	; 0
    2404:	e1 f7       	brne	.-8      	; 0x23fe <main+0x152>
    2406:	00 c0       	rjmp	.+0      	; 0x2408 <main+0x15c>
    2408:	9c 99       	sbic	0x13, 4	; 19
    240a:	e6 cf       	rjmp	.-52     	; 0x23d8 <main+0x12c>
    240c:	0e 94 ff 0e 	call	0x1dfe	; 0x1dfe <big_date>
    2410:	9d 99       	sbic	0x13, 5	; 19
    2412:	08 c0       	rjmp	.+16     	; 0x2424 <main+0x178>
    2414:	9c ec       	ldi	r25, 0xCC	; 204
    2416:	2c ec       	ldi	r18, 0xCC	; 204
    2418:	81 e0       	ldi	r24, 0x01	; 1
    241a:	91 50       	subi	r25, 0x01	; 1
    241c:	20 40       	sbci	r18, 0x00	; 0
    241e:	80 40       	sbci	r24, 0x00	; 0
    2420:	e1 f7       	brne	.-8      	; 0x241a <main+0x16e>
    2422:	00 c0       	rjmp	.+0      	; 0x2424 <main+0x178>
    2424:	9d 9b       	sbis	0x13, 5	; 19
    2426:	da cf       	rjmp	.-76     	; 0x23dc <main+0x130>
    2428:	9c 99       	sbic	0x13, 4	; 19
    242a:	08 c0       	rjmp	.+16     	; 0x243c <main+0x190>
    242c:	9c ec       	ldi	r25, 0xCC	; 204
    242e:	2c ec       	ldi	r18, 0xCC	; 204
    2430:	81 e0       	ldi	r24, 0x01	; 1
    2432:	91 50       	subi	r25, 0x01	; 1
    2434:	20 40       	sbci	r18, 0x00	; 0
    2436:	80 40       	sbci	r24, 0x00	; 0
    2438:	e1 f7       	brne	.-8      	; 0x2432 <main+0x186>
    243a:	00 c0       	rjmp	.+0      	; 0x243c <main+0x190>
    243c:	9c 9b       	sbis	0x13, 4	; 19
    243e:	62 cf       	rjmp	.-316    	; 0x2304 <main+0x58>
    2440:	e5 cf       	rjmp	.-54     	; 0x240c <main+0x160>

00002442 <__vector_10>:
    2442:	1f 92       	push	r1
    2444:	0f 92       	push	r0
    2446:	0f b6       	in	r0, 0x3f	; 63
    2448:	0f 92       	push	r0
    244a:	11 24       	eor	r1, r1
    244c:	2f 93       	push	r18
    244e:	3f 93       	push	r19
    2450:	8f 93       	push	r24
    2452:	9f 93       	push	r25
    2454:	80 91 6c 06 	lds	r24, 0x066C
    2458:	90 91 6d 06 	lds	r25, 0x066D
    245c:	9c 01       	movw	r18, r24
    245e:	2f 5f       	subi	r18, 0xFF	; 255
    2460:	3f 4f       	sbci	r19, 0xFF	; 255
    2462:	30 93 6d 06 	sts	0x066D, r19
    2466:	20 93 6c 06 	sts	0x066C, r18
    246a:	8c 32       	cpi	r24, 0x2C	; 44
    246c:	91 40       	sbci	r25, 0x01	; 1
    246e:	39 f4       	brne	.+14     	; 0x247e <__vector_10+0x3c>
    2470:	81 e0       	ldi	r24, 0x01	; 1
    2472:	80 93 e0 06 	sts	0x06E0, r24
    2476:	10 92 6d 06 	sts	0x066D, r1
    247a:	10 92 6c 06 	sts	0x066C, r1
    247e:	9f 91       	pop	r25
    2480:	8f 91       	pop	r24
    2482:	3f 91       	pop	r19
    2484:	2f 91       	pop	r18
    2486:	0f 90       	pop	r0
    2488:	0f be       	out	0x3f, r0	; 63
    248a:	0f 90       	pop	r0
    248c:	1f 90       	pop	r1
    248e:	18 95       	reti

00002490 <__udivmodhi4>:
    2490:	aa 1b       	sub	r26, r26
    2492:	bb 1b       	sub	r27, r27
    2494:	51 e1       	ldi	r21, 0x11	; 17
    2496:	07 c0       	rjmp	.+14     	; 0x24a6 <__udivmodhi4_ep>

00002498 <__udivmodhi4_loop>:
    2498:	aa 1f       	adc	r26, r26
    249a:	bb 1f       	adc	r27, r27
    249c:	a6 17       	cp	r26, r22
    249e:	b7 07       	cpc	r27, r23
    24a0:	10 f0       	brcs	.+4      	; 0x24a6 <__udivmodhi4_ep>
    24a2:	a6 1b       	sub	r26, r22
    24a4:	b7 0b       	sbc	r27, r23

000024a6 <__udivmodhi4_ep>:
    24a6:	88 1f       	adc	r24, r24
    24a8:	99 1f       	adc	r25, r25
    24aa:	5a 95       	dec	r21
    24ac:	a9 f7       	brne	.-22     	; 0x2498 <__udivmodhi4_loop>
    24ae:	80 95       	com	r24
    24b0:	90 95       	com	r25
    24b2:	bc 01       	movw	r22, r24
    24b4:	cd 01       	movw	r24, r26
    24b6:	08 95       	ret

000024b8 <strcmp>:
    24b8:	fb 01       	movw	r30, r22
    24ba:	dc 01       	movw	r26, r24
    24bc:	8d 91       	ld	r24, X+
    24be:	01 90       	ld	r0, Z+
    24c0:	80 19       	sub	r24, r0
    24c2:	01 10       	cpse	r0, r1
    24c4:	d9 f3       	breq	.-10     	; 0x24bc <strcmp+0x4>
    24c6:	99 0b       	sbc	r25, r25
    24c8:	08 95       	ret

000024ca <sprintf>:
    24ca:	ae e0       	ldi	r26, 0x0E	; 14
    24cc:	b0 e0       	ldi	r27, 0x00	; 0
    24ce:	eb e6       	ldi	r30, 0x6B	; 107
    24d0:	f2 e1       	ldi	r31, 0x12	; 18
    24d2:	0c 94 11 15 	jmp	0x2a22	; 0x2a22 <__prologue_saves__+0x1c>
    24d6:	0d 89       	ldd	r16, Y+21	; 0x15
    24d8:	1e 89       	ldd	r17, Y+22	; 0x16
    24da:	86 e0       	ldi	r24, 0x06	; 6
    24dc:	8c 83       	std	Y+4, r24	; 0x04
    24de:	1a 83       	std	Y+2, r17	; 0x02
    24e0:	09 83       	std	Y+1, r16	; 0x01
    24e2:	8f ef       	ldi	r24, 0xFF	; 255
    24e4:	9f e7       	ldi	r25, 0x7F	; 127
    24e6:	9e 83       	std	Y+6, r25	; 0x06
    24e8:	8d 83       	std	Y+5, r24	; 0x05
    24ea:	ce 01       	movw	r24, r28
    24ec:	49 96       	adiw	r24, 0x19	; 25
    24ee:	ac 01       	movw	r20, r24
    24f0:	6f 89       	ldd	r22, Y+23	; 0x17
    24f2:	78 8d       	ldd	r23, Y+24	; 0x18
    24f4:	ce 01       	movw	r24, r28
    24f6:	01 96       	adiw	r24, 0x01	; 1
    24f8:	0e 94 87 12 	call	0x250e	; 0x250e <vfprintf>
    24fc:	ef 81       	ldd	r30, Y+7	; 0x07
    24fe:	f8 85       	ldd	r31, Y+8	; 0x08
    2500:	e0 0f       	add	r30, r16
    2502:	f1 1f       	adc	r31, r17
    2504:	10 82       	st	Z, r1
    2506:	2e 96       	adiw	r28, 0x0e	; 14
    2508:	e4 e0       	ldi	r30, 0x04	; 4
    250a:	0c 94 2d 15 	jmp	0x2a5a	; 0x2a5a <__epilogue_restores__+0x1c>

0000250e <vfprintf>:
    250e:	ac e0       	ldi	r26, 0x0C	; 12
    2510:	b0 e0       	ldi	r27, 0x00	; 0
    2512:	ed e8       	ldi	r30, 0x8D	; 141
    2514:	f2 e1       	ldi	r31, 0x12	; 18
    2516:	0c 94 03 15 	jmp	0x2a06	; 0x2a06 <__prologue_saves__>
    251a:	7c 01       	movw	r14, r24
    251c:	6b 01       	movw	r12, r22
    251e:	8a 01       	movw	r16, r20
    2520:	fc 01       	movw	r30, r24
    2522:	17 82       	std	Z+7, r1	; 0x07
    2524:	16 82       	std	Z+6, r1	; 0x06
    2526:	83 81       	ldd	r24, Z+3	; 0x03
    2528:	81 ff       	sbrs	r24, 1
    252a:	c6 c1       	rjmp	.+908    	; 0x28b8 <vfprintf+0x3aa>
    252c:	88 24       	eor	r8, r8
    252e:	83 94       	inc	r8
    2530:	91 2c       	mov	r9, r1
    2532:	8c 0e       	add	r8, r28
    2534:	9d 1e       	adc	r9, r29
    2536:	f7 01       	movw	r30, r14
    2538:	93 81       	ldd	r25, Z+3	; 0x03
    253a:	f6 01       	movw	r30, r12
    253c:	93 fd       	sbrc	r25, 3
    253e:	85 91       	lpm	r24, Z+
    2540:	93 ff       	sbrs	r25, 3
    2542:	81 91       	ld	r24, Z+
    2544:	6f 01       	movw	r12, r30
    2546:	88 23       	and	r24, r24
    2548:	09 f4       	brne	.+2      	; 0x254c <vfprintf+0x3e>
    254a:	b2 c1       	rjmp	.+868    	; 0x28b0 <vfprintf+0x3a2>
    254c:	85 32       	cpi	r24, 0x25	; 37
    254e:	39 f4       	brne	.+14     	; 0x255e <vfprintf+0x50>
    2550:	93 fd       	sbrc	r25, 3
    2552:	85 91       	lpm	r24, Z+
    2554:	93 ff       	sbrs	r25, 3
    2556:	81 91       	ld	r24, Z+
    2558:	6f 01       	movw	r12, r30
    255a:	85 32       	cpi	r24, 0x25	; 37
    255c:	29 f4       	brne	.+10     	; 0x2568 <vfprintf+0x5a>
    255e:	b7 01       	movw	r22, r14
    2560:	90 e0       	ldi	r25, 0x00	; 0
    2562:	0e 94 79 14 	call	0x28f2	; 0x28f2 <fputc>
    2566:	e7 cf       	rjmp	.-50     	; 0x2536 <vfprintf+0x28>
    2568:	51 2c       	mov	r5, r1
    256a:	31 2c       	mov	r3, r1
    256c:	20 e0       	ldi	r18, 0x00	; 0
    256e:	20 32       	cpi	r18, 0x20	; 32
    2570:	a8 f4       	brcc	.+42     	; 0x259c <vfprintf+0x8e>
    2572:	8b 32       	cpi	r24, 0x2B	; 43
    2574:	61 f0       	breq	.+24     	; 0x258e <vfprintf+0x80>
    2576:	28 f4       	brcc	.+10     	; 0x2582 <vfprintf+0x74>
    2578:	80 32       	cpi	r24, 0x20	; 32
    257a:	51 f0       	breq	.+20     	; 0x2590 <vfprintf+0x82>
    257c:	83 32       	cpi	r24, 0x23	; 35
    257e:	71 f4       	brne	.+28     	; 0x259c <vfprintf+0x8e>
    2580:	0b c0       	rjmp	.+22     	; 0x2598 <vfprintf+0x8a>
    2582:	8d 32       	cpi	r24, 0x2D	; 45
    2584:	39 f0       	breq	.+14     	; 0x2594 <vfprintf+0x86>
    2586:	80 33       	cpi	r24, 0x30	; 48
    2588:	49 f4       	brne	.+18     	; 0x259c <vfprintf+0x8e>
    258a:	21 60       	ori	r18, 0x01	; 1
    258c:	28 c0       	rjmp	.+80     	; 0x25de <vfprintf+0xd0>
    258e:	22 60       	ori	r18, 0x02	; 2
    2590:	24 60       	ori	r18, 0x04	; 4
    2592:	25 c0       	rjmp	.+74     	; 0x25de <vfprintf+0xd0>
    2594:	28 60       	ori	r18, 0x08	; 8
    2596:	23 c0       	rjmp	.+70     	; 0x25de <vfprintf+0xd0>
    2598:	20 61       	ori	r18, 0x10	; 16
    259a:	21 c0       	rjmp	.+66     	; 0x25de <vfprintf+0xd0>
    259c:	27 fd       	sbrc	r18, 7
    259e:	27 c0       	rjmp	.+78     	; 0x25ee <vfprintf+0xe0>
    25a0:	38 2f       	mov	r19, r24
    25a2:	30 53       	subi	r19, 0x30	; 48
    25a4:	3a 30       	cpi	r19, 0x0A	; 10
    25a6:	78 f4       	brcc	.+30     	; 0x25c6 <vfprintf+0xb8>
    25a8:	26 ff       	sbrs	r18, 6
    25aa:	06 c0       	rjmp	.+12     	; 0x25b8 <vfprintf+0xaa>
    25ac:	fa e0       	ldi	r31, 0x0A	; 10
    25ae:	5f 9e       	mul	r5, r31
    25b0:	30 0d       	add	r19, r0
    25b2:	11 24       	eor	r1, r1
    25b4:	53 2e       	mov	r5, r19
    25b6:	13 c0       	rjmp	.+38     	; 0x25de <vfprintf+0xd0>
    25b8:	8a e0       	ldi	r24, 0x0A	; 10
    25ba:	38 9e       	mul	r3, r24
    25bc:	30 0d       	add	r19, r0
    25be:	11 24       	eor	r1, r1
    25c0:	33 2e       	mov	r3, r19
    25c2:	20 62       	ori	r18, 0x20	; 32
    25c4:	0c c0       	rjmp	.+24     	; 0x25de <vfprintf+0xd0>
    25c6:	8e 32       	cpi	r24, 0x2E	; 46
    25c8:	21 f4       	brne	.+8      	; 0x25d2 <vfprintf+0xc4>
    25ca:	26 fd       	sbrc	r18, 6
    25cc:	71 c1       	rjmp	.+738    	; 0x28b0 <vfprintf+0x3a2>
    25ce:	20 64       	ori	r18, 0x40	; 64
    25d0:	06 c0       	rjmp	.+12     	; 0x25de <vfprintf+0xd0>
    25d2:	8c 36       	cpi	r24, 0x6C	; 108
    25d4:	11 f4       	brne	.+4      	; 0x25da <vfprintf+0xcc>
    25d6:	20 68       	ori	r18, 0x80	; 128
    25d8:	02 c0       	rjmp	.+4      	; 0x25de <vfprintf+0xd0>
    25da:	88 36       	cpi	r24, 0x68	; 104
    25dc:	41 f4       	brne	.+16     	; 0x25ee <vfprintf+0xe0>
    25de:	f6 01       	movw	r30, r12
    25e0:	93 fd       	sbrc	r25, 3
    25e2:	85 91       	lpm	r24, Z+
    25e4:	93 ff       	sbrs	r25, 3
    25e6:	81 91       	ld	r24, Z+
    25e8:	6f 01       	movw	r12, r30
    25ea:	81 11       	cpse	r24, r1
    25ec:	c0 cf       	rjmp	.-128    	; 0x256e <vfprintf+0x60>
    25ee:	98 2f       	mov	r25, r24
    25f0:	95 54       	subi	r25, 0x45	; 69
    25f2:	93 30       	cpi	r25, 0x03	; 3
    25f4:	18 f0       	brcs	.+6      	; 0x25fc <vfprintf+0xee>
    25f6:	90 52       	subi	r25, 0x20	; 32
    25f8:	93 30       	cpi	r25, 0x03	; 3
    25fa:	28 f4       	brcc	.+10     	; 0x2606 <vfprintf+0xf8>
    25fc:	0c 5f       	subi	r16, 0xFC	; 252
    25fe:	1f 4f       	sbci	r17, 0xFF	; 255
    2600:	ff e3       	ldi	r31, 0x3F	; 63
    2602:	f9 83       	std	Y+1, r31	; 0x01
    2604:	0d c0       	rjmp	.+26     	; 0x2620 <vfprintf+0x112>
    2606:	83 36       	cpi	r24, 0x63	; 99
    2608:	31 f0       	breq	.+12     	; 0x2616 <vfprintf+0x108>
    260a:	83 37       	cpi	r24, 0x73	; 115
    260c:	71 f0       	breq	.+28     	; 0x262a <vfprintf+0x11c>
    260e:	83 35       	cpi	r24, 0x53	; 83
    2610:	09 f0       	breq	.+2      	; 0x2614 <vfprintf+0x106>
    2612:	5e c0       	rjmp	.+188    	; 0x26d0 <vfprintf+0x1c2>
    2614:	23 c0       	rjmp	.+70     	; 0x265c <vfprintf+0x14e>
    2616:	f8 01       	movw	r30, r16
    2618:	80 81       	ld	r24, Z
    261a:	89 83       	std	Y+1, r24	; 0x01
    261c:	0e 5f       	subi	r16, 0xFE	; 254
    261e:	1f 4f       	sbci	r17, 0xFF	; 255
    2620:	44 24       	eor	r4, r4
    2622:	43 94       	inc	r4
    2624:	51 2c       	mov	r5, r1
    2626:	54 01       	movw	r10, r8
    2628:	15 c0       	rjmp	.+42     	; 0x2654 <vfprintf+0x146>
    262a:	38 01       	movw	r6, r16
    262c:	f2 e0       	ldi	r31, 0x02	; 2
    262e:	6f 0e       	add	r6, r31
    2630:	71 1c       	adc	r7, r1
    2632:	f8 01       	movw	r30, r16
    2634:	a0 80       	ld	r10, Z
    2636:	b1 80       	ldd	r11, Z+1	; 0x01
    2638:	26 ff       	sbrs	r18, 6
    263a:	03 c0       	rjmp	.+6      	; 0x2642 <vfprintf+0x134>
    263c:	65 2d       	mov	r22, r5
    263e:	70 e0       	ldi	r23, 0x00	; 0
    2640:	02 c0       	rjmp	.+4      	; 0x2646 <vfprintf+0x138>
    2642:	6f ef       	ldi	r22, 0xFF	; 255
    2644:	7f ef       	ldi	r23, 0xFF	; 255
    2646:	c5 01       	movw	r24, r10
    2648:	2c 87       	std	Y+12, r18	; 0x0c
    264a:	0e 94 6e 14 	call	0x28dc	; 0x28dc <strnlen>
    264e:	2c 01       	movw	r4, r24
    2650:	83 01       	movw	r16, r6
    2652:	2c 85       	ldd	r18, Y+12	; 0x0c
    2654:	6f e7       	ldi	r22, 0x7F	; 127
    2656:	26 2e       	mov	r2, r22
    2658:	22 22       	and	r2, r18
    265a:	18 c0       	rjmp	.+48     	; 0x268c <vfprintf+0x17e>
    265c:	38 01       	movw	r6, r16
    265e:	f2 e0       	ldi	r31, 0x02	; 2
    2660:	6f 0e       	add	r6, r31
    2662:	71 1c       	adc	r7, r1
    2664:	f8 01       	movw	r30, r16
    2666:	a0 80       	ld	r10, Z
    2668:	b1 80       	ldd	r11, Z+1	; 0x01
    266a:	26 ff       	sbrs	r18, 6
    266c:	03 c0       	rjmp	.+6      	; 0x2674 <vfprintf+0x166>
    266e:	65 2d       	mov	r22, r5
    2670:	70 e0       	ldi	r23, 0x00	; 0
    2672:	02 c0       	rjmp	.+4      	; 0x2678 <vfprintf+0x16a>
    2674:	6f ef       	ldi	r22, 0xFF	; 255
    2676:	7f ef       	ldi	r23, 0xFF	; 255
    2678:	c5 01       	movw	r24, r10
    267a:	2c 87       	std	Y+12, r18	; 0x0c
    267c:	0e 94 63 14 	call	0x28c6	; 0x28c6 <strnlen_P>
    2680:	2c 01       	movw	r4, r24
    2682:	2c 85       	ldd	r18, Y+12	; 0x0c
    2684:	50 e8       	ldi	r21, 0x80	; 128
    2686:	25 2e       	mov	r2, r21
    2688:	22 2a       	or	r2, r18
    268a:	83 01       	movw	r16, r6
    268c:	23 fc       	sbrc	r2, 3
    268e:	1c c0       	rjmp	.+56     	; 0x26c8 <vfprintf+0x1ba>
    2690:	06 c0       	rjmp	.+12     	; 0x269e <vfprintf+0x190>
    2692:	b7 01       	movw	r22, r14
    2694:	80 e2       	ldi	r24, 0x20	; 32
    2696:	90 e0       	ldi	r25, 0x00	; 0
    2698:	0e 94 79 14 	call	0x28f2	; 0x28f2 <fputc>
    269c:	3a 94       	dec	r3
    269e:	83 2d       	mov	r24, r3
    26a0:	90 e0       	ldi	r25, 0x00	; 0
    26a2:	48 16       	cp	r4, r24
    26a4:	59 06       	cpc	r5, r25
    26a6:	a8 f3       	brcs	.-22     	; 0x2692 <vfprintf+0x184>
    26a8:	0f c0       	rjmp	.+30     	; 0x26c8 <vfprintf+0x1ba>
    26aa:	f5 01       	movw	r30, r10
    26ac:	27 fc       	sbrc	r2, 7
    26ae:	85 91       	lpm	r24, Z+
    26b0:	27 fe       	sbrs	r2, 7
    26b2:	81 91       	ld	r24, Z+
    26b4:	5f 01       	movw	r10, r30
    26b6:	b7 01       	movw	r22, r14
    26b8:	90 e0       	ldi	r25, 0x00	; 0
    26ba:	0e 94 79 14 	call	0x28f2	; 0x28f2 <fputc>
    26be:	31 10       	cpse	r3, r1
    26c0:	3a 94       	dec	r3
    26c2:	f1 e0       	ldi	r31, 0x01	; 1
    26c4:	4f 1a       	sub	r4, r31
    26c6:	51 08       	sbc	r5, r1
    26c8:	41 14       	cp	r4, r1
    26ca:	51 04       	cpc	r5, r1
    26cc:	71 f7       	brne	.-36     	; 0x26aa <vfprintf+0x19c>
    26ce:	ed c0       	rjmp	.+474    	; 0x28aa <vfprintf+0x39c>
    26d0:	84 36       	cpi	r24, 0x64	; 100
    26d2:	11 f0       	breq	.+4      	; 0x26d8 <vfprintf+0x1ca>
    26d4:	89 36       	cpi	r24, 0x69	; 105
    26d6:	41 f5       	brne	.+80     	; 0x2728 <vfprintf+0x21a>
    26d8:	f8 01       	movw	r30, r16
    26da:	27 ff       	sbrs	r18, 7
    26dc:	07 c0       	rjmp	.+14     	; 0x26ec <vfprintf+0x1de>
    26de:	60 81       	ld	r22, Z
    26e0:	71 81       	ldd	r23, Z+1	; 0x01
    26e2:	82 81       	ldd	r24, Z+2	; 0x02
    26e4:	93 81       	ldd	r25, Z+3	; 0x03
    26e6:	0c 5f       	subi	r16, 0xFC	; 252
    26e8:	1f 4f       	sbci	r17, 0xFF	; 255
    26ea:	08 c0       	rjmp	.+16     	; 0x26fc <vfprintf+0x1ee>
    26ec:	60 81       	ld	r22, Z
    26ee:	71 81       	ldd	r23, Z+1	; 0x01
    26f0:	88 27       	eor	r24, r24
    26f2:	77 fd       	sbrc	r23, 7
    26f4:	80 95       	com	r24
    26f6:	98 2f       	mov	r25, r24
    26f8:	0e 5f       	subi	r16, 0xFE	; 254
    26fa:	1f 4f       	sbci	r17, 0xFF	; 255
    26fc:	4f e6       	ldi	r20, 0x6F	; 111
    26fe:	b4 2e       	mov	r11, r20
    2700:	b2 22       	and	r11, r18
    2702:	97 ff       	sbrs	r25, 7
    2704:	09 c0       	rjmp	.+18     	; 0x2718 <vfprintf+0x20a>
    2706:	90 95       	com	r25
    2708:	80 95       	com	r24
    270a:	70 95       	com	r23
    270c:	61 95       	neg	r22
    270e:	7f 4f       	sbci	r23, 0xFF	; 255
    2710:	8f 4f       	sbci	r24, 0xFF	; 255
    2712:	9f 4f       	sbci	r25, 0xFF	; 255
    2714:	f0 e8       	ldi	r31, 0x80	; 128
    2716:	bf 2a       	or	r11, r31
    2718:	2a e0       	ldi	r18, 0x0A	; 10
    271a:	30 e0       	ldi	r19, 0x00	; 0
    271c:	a4 01       	movw	r20, r8
    271e:	0e 94 a5 14 	call	0x294a	; 0x294a <__ultoa_invert>
    2722:	a8 2e       	mov	r10, r24
    2724:	a8 18       	sub	r10, r8
    2726:	43 c0       	rjmp	.+134    	; 0x27ae <vfprintf+0x2a0>
    2728:	85 37       	cpi	r24, 0x75	; 117
    272a:	31 f4       	brne	.+12     	; 0x2738 <vfprintf+0x22a>
    272c:	3f ee       	ldi	r19, 0xEF	; 239
    272e:	b3 2e       	mov	r11, r19
    2730:	b2 22       	and	r11, r18
    2732:	2a e0       	ldi	r18, 0x0A	; 10
    2734:	30 e0       	ldi	r19, 0x00	; 0
    2736:	24 c0       	rjmp	.+72     	; 0x2780 <vfprintf+0x272>
    2738:	99 ef       	ldi	r25, 0xF9	; 249
    273a:	b9 2e       	mov	r11, r25
    273c:	b2 22       	and	r11, r18
    273e:	8f 36       	cpi	r24, 0x6F	; 111
    2740:	b9 f0       	breq	.+46     	; 0x2770 <vfprintf+0x262>
    2742:	20 f4       	brcc	.+8      	; 0x274c <vfprintf+0x23e>
    2744:	88 35       	cpi	r24, 0x58	; 88
    2746:	09 f0       	breq	.+2      	; 0x274a <vfprintf+0x23c>
    2748:	b3 c0       	rjmp	.+358    	; 0x28b0 <vfprintf+0x3a2>
    274a:	0d c0       	rjmp	.+26     	; 0x2766 <vfprintf+0x258>
    274c:	80 37       	cpi	r24, 0x70	; 112
    274e:	21 f0       	breq	.+8      	; 0x2758 <vfprintf+0x24a>
    2750:	88 37       	cpi	r24, 0x78	; 120
    2752:	09 f0       	breq	.+2      	; 0x2756 <vfprintf+0x248>
    2754:	ad c0       	rjmp	.+346    	; 0x28b0 <vfprintf+0x3a2>
    2756:	02 c0       	rjmp	.+4      	; 0x275c <vfprintf+0x24e>
    2758:	20 e1       	ldi	r18, 0x10	; 16
    275a:	b2 2a       	or	r11, r18
    275c:	b4 fe       	sbrs	r11, 4
    275e:	0b c0       	rjmp	.+22     	; 0x2776 <vfprintf+0x268>
    2760:	84 e0       	ldi	r24, 0x04	; 4
    2762:	b8 2a       	or	r11, r24
    2764:	08 c0       	rjmp	.+16     	; 0x2776 <vfprintf+0x268>
    2766:	24 ff       	sbrs	r18, 4
    2768:	09 c0       	rjmp	.+18     	; 0x277c <vfprintf+0x26e>
    276a:	e6 e0       	ldi	r30, 0x06	; 6
    276c:	be 2a       	or	r11, r30
    276e:	06 c0       	rjmp	.+12     	; 0x277c <vfprintf+0x26e>
    2770:	28 e0       	ldi	r18, 0x08	; 8
    2772:	30 e0       	ldi	r19, 0x00	; 0
    2774:	05 c0       	rjmp	.+10     	; 0x2780 <vfprintf+0x272>
    2776:	20 e1       	ldi	r18, 0x10	; 16
    2778:	30 e0       	ldi	r19, 0x00	; 0
    277a:	02 c0       	rjmp	.+4      	; 0x2780 <vfprintf+0x272>
    277c:	20 e1       	ldi	r18, 0x10	; 16
    277e:	32 e0       	ldi	r19, 0x02	; 2
    2780:	f8 01       	movw	r30, r16
    2782:	b7 fe       	sbrs	r11, 7
    2784:	07 c0       	rjmp	.+14     	; 0x2794 <vfprintf+0x286>
    2786:	60 81       	ld	r22, Z
    2788:	71 81       	ldd	r23, Z+1	; 0x01
    278a:	82 81       	ldd	r24, Z+2	; 0x02
    278c:	93 81       	ldd	r25, Z+3	; 0x03
    278e:	0c 5f       	subi	r16, 0xFC	; 252
    2790:	1f 4f       	sbci	r17, 0xFF	; 255
    2792:	06 c0       	rjmp	.+12     	; 0x27a0 <vfprintf+0x292>
    2794:	60 81       	ld	r22, Z
    2796:	71 81       	ldd	r23, Z+1	; 0x01
    2798:	80 e0       	ldi	r24, 0x00	; 0
    279a:	90 e0       	ldi	r25, 0x00	; 0
    279c:	0e 5f       	subi	r16, 0xFE	; 254
    279e:	1f 4f       	sbci	r17, 0xFF	; 255
    27a0:	a4 01       	movw	r20, r8
    27a2:	0e 94 a5 14 	call	0x294a	; 0x294a <__ultoa_invert>
    27a6:	a8 2e       	mov	r10, r24
    27a8:	a8 18       	sub	r10, r8
    27aa:	ff e7       	ldi	r31, 0x7F	; 127
    27ac:	bf 22       	and	r11, r31
    27ae:	b6 fe       	sbrs	r11, 6
    27b0:	0b c0       	rjmp	.+22     	; 0x27c8 <vfprintf+0x2ba>
    27b2:	2b 2d       	mov	r18, r11
    27b4:	2e 7f       	andi	r18, 0xFE	; 254
    27b6:	a5 14       	cp	r10, r5
    27b8:	50 f4       	brcc	.+20     	; 0x27ce <vfprintf+0x2c0>
    27ba:	b4 fe       	sbrs	r11, 4
    27bc:	0a c0       	rjmp	.+20     	; 0x27d2 <vfprintf+0x2c4>
    27be:	b2 fc       	sbrc	r11, 2
    27c0:	08 c0       	rjmp	.+16     	; 0x27d2 <vfprintf+0x2c4>
    27c2:	2b 2d       	mov	r18, r11
    27c4:	2e 7e       	andi	r18, 0xEE	; 238
    27c6:	05 c0       	rjmp	.+10     	; 0x27d2 <vfprintf+0x2c4>
    27c8:	7a 2c       	mov	r7, r10
    27ca:	2b 2d       	mov	r18, r11
    27cc:	03 c0       	rjmp	.+6      	; 0x27d4 <vfprintf+0x2c6>
    27ce:	7a 2c       	mov	r7, r10
    27d0:	01 c0       	rjmp	.+2      	; 0x27d4 <vfprintf+0x2c6>
    27d2:	75 2c       	mov	r7, r5
    27d4:	24 ff       	sbrs	r18, 4
    27d6:	0d c0       	rjmp	.+26     	; 0x27f2 <vfprintf+0x2e4>
    27d8:	fe 01       	movw	r30, r28
    27da:	ea 0d       	add	r30, r10
    27dc:	f1 1d       	adc	r31, r1
    27de:	80 81       	ld	r24, Z
    27e0:	80 33       	cpi	r24, 0x30	; 48
    27e2:	11 f4       	brne	.+4      	; 0x27e8 <vfprintf+0x2da>
    27e4:	29 7e       	andi	r18, 0xE9	; 233
    27e6:	09 c0       	rjmp	.+18     	; 0x27fa <vfprintf+0x2ec>
    27e8:	22 ff       	sbrs	r18, 2
    27ea:	06 c0       	rjmp	.+12     	; 0x27f8 <vfprintf+0x2ea>
    27ec:	73 94       	inc	r7
    27ee:	73 94       	inc	r7
    27f0:	04 c0       	rjmp	.+8      	; 0x27fa <vfprintf+0x2ec>
    27f2:	82 2f       	mov	r24, r18
    27f4:	86 78       	andi	r24, 0x86	; 134
    27f6:	09 f0       	breq	.+2      	; 0x27fa <vfprintf+0x2ec>
    27f8:	73 94       	inc	r7
    27fa:	23 fd       	sbrc	r18, 3
    27fc:	14 c0       	rjmp	.+40     	; 0x2826 <vfprintf+0x318>
    27fe:	20 ff       	sbrs	r18, 0
    2800:	0f c0       	rjmp	.+30     	; 0x2820 <vfprintf+0x312>
    2802:	5a 2c       	mov	r5, r10
    2804:	73 14       	cp	r7, r3
    2806:	60 f4       	brcc	.+24     	; 0x2820 <vfprintf+0x312>
    2808:	53 0c       	add	r5, r3
    280a:	57 18       	sub	r5, r7
    280c:	73 2c       	mov	r7, r3
    280e:	08 c0       	rjmp	.+16     	; 0x2820 <vfprintf+0x312>
    2810:	b7 01       	movw	r22, r14
    2812:	80 e2       	ldi	r24, 0x20	; 32
    2814:	90 e0       	ldi	r25, 0x00	; 0
    2816:	2c 87       	std	Y+12, r18	; 0x0c
    2818:	0e 94 79 14 	call	0x28f2	; 0x28f2 <fputc>
    281c:	73 94       	inc	r7
    281e:	2c 85       	ldd	r18, Y+12	; 0x0c
    2820:	73 14       	cp	r7, r3
    2822:	b0 f3       	brcs	.-20     	; 0x2810 <vfprintf+0x302>
    2824:	04 c0       	rjmp	.+8      	; 0x282e <vfprintf+0x320>
    2826:	73 14       	cp	r7, r3
    2828:	10 f4       	brcc	.+4      	; 0x282e <vfprintf+0x320>
    282a:	37 18       	sub	r3, r7
    282c:	01 c0       	rjmp	.+2      	; 0x2830 <vfprintf+0x322>
    282e:	31 2c       	mov	r3, r1
    2830:	24 ff       	sbrs	r18, 4
    2832:	12 c0       	rjmp	.+36     	; 0x2858 <vfprintf+0x34a>
    2834:	b7 01       	movw	r22, r14
    2836:	80 e3       	ldi	r24, 0x30	; 48
    2838:	90 e0       	ldi	r25, 0x00	; 0
    283a:	2c 87       	std	Y+12, r18	; 0x0c
    283c:	0e 94 79 14 	call	0x28f2	; 0x28f2 <fputc>
    2840:	2c 85       	ldd	r18, Y+12	; 0x0c
    2842:	22 ff       	sbrs	r18, 2
    2844:	1e c0       	rjmp	.+60     	; 0x2882 <vfprintf+0x374>
    2846:	21 ff       	sbrs	r18, 1
    2848:	03 c0       	rjmp	.+6      	; 0x2850 <vfprintf+0x342>
    284a:	88 e5       	ldi	r24, 0x58	; 88
    284c:	90 e0       	ldi	r25, 0x00	; 0
    284e:	02 c0       	rjmp	.+4      	; 0x2854 <vfprintf+0x346>
    2850:	88 e7       	ldi	r24, 0x78	; 120
    2852:	90 e0       	ldi	r25, 0x00	; 0
    2854:	b7 01       	movw	r22, r14
    2856:	0c c0       	rjmp	.+24     	; 0x2870 <vfprintf+0x362>
    2858:	82 2f       	mov	r24, r18
    285a:	86 78       	andi	r24, 0x86	; 134
    285c:	91 f0       	breq	.+36     	; 0x2882 <vfprintf+0x374>
    285e:	21 fd       	sbrc	r18, 1
    2860:	02 c0       	rjmp	.+4      	; 0x2866 <vfprintf+0x358>
    2862:	80 e2       	ldi	r24, 0x20	; 32
    2864:	01 c0       	rjmp	.+2      	; 0x2868 <vfprintf+0x35a>
    2866:	8b e2       	ldi	r24, 0x2B	; 43
    2868:	27 fd       	sbrc	r18, 7
    286a:	8d e2       	ldi	r24, 0x2D	; 45
    286c:	b7 01       	movw	r22, r14
    286e:	90 e0       	ldi	r25, 0x00	; 0
    2870:	0e 94 79 14 	call	0x28f2	; 0x28f2 <fputc>
    2874:	06 c0       	rjmp	.+12     	; 0x2882 <vfprintf+0x374>
    2876:	b7 01       	movw	r22, r14
    2878:	80 e3       	ldi	r24, 0x30	; 48
    287a:	90 e0       	ldi	r25, 0x00	; 0
    287c:	0e 94 79 14 	call	0x28f2	; 0x28f2 <fputc>
    2880:	5a 94       	dec	r5
    2882:	a5 14       	cp	r10, r5
    2884:	c0 f3       	brcs	.-16     	; 0x2876 <vfprintf+0x368>
    2886:	aa 94       	dec	r10
    2888:	f4 01       	movw	r30, r8
    288a:	ea 0d       	add	r30, r10
    288c:	f1 1d       	adc	r31, r1
    288e:	b7 01       	movw	r22, r14
    2890:	80 81       	ld	r24, Z
    2892:	90 e0       	ldi	r25, 0x00	; 0
    2894:	0e 94 79 14 	call	0x28f2	; 0x28f2 <fputc>
    2898:	a1 10       	cpse	r10, r1
    289a:	f5 cf       	rjmp	.-22     	; 0x2886 <vfprintf+0x378>
    289c:	06 c0       	rjmp	.+12     	; 0x28aa <vfprintf+0x39c>
    289e:	b7 01       	movw	r22, r14
    28a0:	80 e2       	ldi	r24, 0x20	; 32
    28a2:	90 e0       	ldi	r25, 0x00	; 0
    28a4:	0e 94 79 14 	call	0x28f2	; 0x28f2 <fputc>
    28a8:	3a 94       	dec	r3
    28aa:	31 10       	cpse	r3, r1
    28ac:	f8 cf       	rjmp	.-16     	; 0x289e <vfprintf+0x390>
    28ae:	43 ce       	rjmp	.-890    	; 0x2536 <vfprintf+0x28>
    28b0:	f7 01       	movw	r30, r14
    28b2:	26 81       	ldd	r18, Z+6	; 0x06
    28b4:	37 81       	ldd	r19, Z+7	; 0x07
    28b6:	02 c0       	rjmp	.+4      	; 0x28bc <vfprintf+0x3ae>
    28b8:	2f ef       	ldi	r18, 0xFF	; 255
    28ba:	3f ef       	ldi	r19, 0xFF	; 255
    28bc:	c9 01       	movw	r24, r18
    28be:	2c 96       	adiw	r28, 0x0c	; 12
    28c0:	e2 e1       	ldi	r30, 0x12	; 18
    28c2:	0c 94 1f 15 	jmp	0x2a3e	; 0x2a3e <__epilogue_restores__>

000028c6 <strnlen_P>:
    28c6:	fc 01       	movw	r30, r24
    28c8:	05 90       	lpm	r0, Z+
    28ca:	61 50       	subi	r22, 0x01	; 1
    28cc:	70 40       	sbci	r23, 0x00	; 0
    28ce:	01 10       	cpse	r0, r1
    28d0:	d8 f7       	brcc	.-10     	; 0x28c8 <strnlen_P+0x2>
    28d2:	80 95       	com	r24
    28d4:	90 95       	com	r25
    28d6:	8e 0f       	add	r24, r30
    28d8:	9f 1f       	adc	r25, r31
    28da:	08 95       	ret

000028dc <strnlen>:
    28dc:	fc 01       	movw	r30, r24
    28de:	61 50       	subi	r22, 0x01	; 1
    28e0:	70 40       	sbci	r23, 0x00	; 0
    28e2:	01 90       	ld	r0, Z+
    28e4:	01 10       	cpse	r0, r1
    28e6:	d8 f7       	brcc	.-10     	; 0x28de <strnlen+0x2>
    28e8:	80 95       	com	r24
    28ea:	90 95       	com	r25
    28ec:	8e 0f       	add	r24, r30
    28ee:	9f 1f       	adc	r25, r31
    28f0:	08 95       	ret

000028f2 <fputc>:
    28f2:	0f 93       	push	r16
    28f4:	1f 93       	push	r17
    28f6:	cf 93       	push	r28
    28f8:	df 93       	push	r29
    28fa:	8c 01       	movw	r16, r24
    28fc:	eb 01       	movw	r28, r22
    28fe:	8b 81       	ldd	r24, Y+3	; 0x03
    2900:	81 fd       	sbrc	r24, 1
    2902:	03 c0       	rjmp	.+6      	; 0x290a <fputc+0x18>
    2904:	0f ef       	ldi	r16, 0xFF	; 255
    2906:	1f ef       	ldi	r17, 0xFF	; 255
    2908:	1a c0       	rjmp	.+52     	; 0x293e <fputc+0x4c>
    290a:	82 ff       	sbrs	r24, 2
    290c:	0d c0       	rjmp	.+26     	; 0x2928 <fputc+0x36>
    290e:	2e 81       	ldd	r18, Y+6	; 0x06
    2910:	3f 81       	ldd	r19, Y+7	; 0x07
    2912:	8c 81       	ldd	r24, Y+4	; 0x04
    2914:	9d 81       	ldd	r25, Y+5	; 0x05
    2916:	28 17       	cp	r18, r24
    2918:	39 07       	cpc	r19, r25
    291a:	64 f4       	brge	.+24     	; 0x2934 <fputc+0x42>
    291c:	e8 81       	ld	r30, Y
    291e:	f9 81       	ldd	r31, Y+1	; 0x01
    2920:	01 93       	st	Z+, r16
    2922:	f9 83       	std	Y+1, r31	; 0x01
    2924:	e8 83       	st	Y, r30
    2926:	06 c0       	rjmp	.+12     	; 0x2934 <fputc+0x42>
    2928:	e8 85       	ldd	r30, Y+8	; 0x08
    292a:	f9 85       	ldd	r31, Y+9	; 0x09
    292c:	80 2f       	mov	r24, r16
    292e:	09 95       	icall
    2930:	89 2b       	or	r24, r25
    2932:	41 f7       	brne	.-48     	; 0x2904 <fputc+0x12>
    2934:	8e 81       	ldd	r24, Y+6	; 0x06
    2936:	9f 81       	ldd	r25, Y+7	; 0x07
    2938:	01 96       	adiw	r24, 0x01	; 1
    293a:	9f 83       	std	Y+7, r25	; 0x07
    293c:	8e 83       	std	Y+6, r24	; 0x06
    293e:	c8 01       	movw	r24, r16
    2940:	df 91       	pop	r29
    2942:	cf 91       	pop	r28
    2944:	1f 91       	pop	r17
    2946:	0f 91       	pop	r16
    2948:	08 95       	ret

0000294a <__ultoa_invert>:
    294a:	fa 01       	movw	r30, r20
    294c:	aa 27       	eor	r26, r26
    294e:	28 30       	cpi	r18, 0x08	; 8
    2950:	51 f1       	breq	.+84     	; 0x29a6 <__ultoa_invert+0x5c>
    2952:	20 31       	cpi	r18, 0x10	; 16
    2954:	81 f1       	breq	.+96     	; 0x29b6 <__ultoa_invert+0x6c>
    2956:	e8 94       	clt
    2958:	6f 93       	push	r22
    295a:	6e 7f       	andi	r22, 0xFE	; 254
    295c:	6e 5f       	subi	r22, 0xFE	; 254
    295e:	7f 4f       	sbci	r23, 0xFF	; 255
    2960:	8f 4f       	sbci	r24, 0xFF	; 255
    2962:	9f 4f       	sbci	r25, 0xFF	; 255
    2964:	af 4f       	sbci	r26, 0xFF	; 255
    2966:	b1 e0       	ldi	r27, 0x01	; 1
    2968:	3e d0       	rcall	.+124    	; 0x29e6 <__ultoa_invert+0x9c>
    296a:	b4 e0       	ldi	r27, 0x04	; 4
    296c:	3c d0       	rcall	.+120    	; 0x29e6 <__ultoa_invert+0x9c>
    296e:	67 0f       	add	r22, r23
    2970:	78 1f       	adc	r23, r24
    2972:	89 1f       	adc	r24, r25
    2974:	9a 1f       	adc	r25, r26
    2976:	a1 1d       	adc	r26, r1
    2978:	68 0f       	add	r22, r24
    297a:	79 1f       	adc	r23, r25
    297c:	8a 1f       	adc	r24, r26
    297e:	91 1d       	adc	r25, r1
    2980:	a1 1d       	adc	r26, r1
    2982:	6a 0f       	add	r22, r26
    2984:	71 1d       	adc	r23, r1
    2986:	81 1d       	adc	r24, r1
    2988:	91 1d       	adc	r25, r1
    298a:	a1 1d       	adc	r26, r1
    298c:	20 d0       	rcall	.+64     	; 0x29ce <__ultoa_invert+0x84>
    298e:	09 f4       	brne	.+2      	; 0x2992 <__ultoa_invert+0x48>
    2990:	68 94       	set
    2992:	3f 91       	pop	r19
    2994:	2a e0       	ldi	r18, 0x0A	; 10
    2996:	26 9f       	mul	r18, r22
    2998:	11 24       	eor	r1, r1
    299a:	30 19       	sub	r19, r0
    299c:	30 5d       	subi	r19, 0xD0	; 208
    299e:	31 93       	st	Z+, r19
    29a0:	de f6       	brtc	.-74     	; 0x2958 <__ultoa_invert+0xe>
    29a2:	cf 01       	movw	r24, r30
    29a4:	08 95       	ret
    29a6:	46 2f       	mov	r20, r22
    29a8:	47 70       	andi	r20, 0x07	; 7
    29aa:	40 5d       	subi	r20, 0xD0	; 208
    29ac:	41 93       	st	Z+, r20
    29ae:	b3 e0       	ldi	r27, 0x03	; 3
    29b0:	0f d0       	rcall	.+30     	; 0x29d0 <__ultoa_invert+0x86>
    29b2:	c9 f7       	brne	.-14     	; 0x29a6 <__ultoa_invert+0x5c>
    29b4:	f6 cf       	rjmp	.-20     	; 0x29a2 <__ultoa_invert+0x58>
    29b6:	46 2f       	mov	r20, r22
    29b8:	4f 70       	andi	r20, 0x0F	; 15
    29ba:	40 5d       	subi	r20, 0xD0	; 208
    29bc:	4a 33       	cpi	r20, 0x3A	; 58
    29be:	18 f0       	brcs	.+6      	; 0x29c6 <__ultoa_invert+0x7c>
    29c0:	49 5d       	subi	r20, 0xD9	; 217
    29c2:	31 fd       	sbrc	r19, 1
    29c4:	40 52       	subi	r20, 0x20	; 32
    29c6:	41 93       	st	Z+, r20
    29c8:	02 d0       	rcall	.+4      	; 0x29ce <__ultoa_invert+0x84>
    29ca:	a9 f7       	brne	.-22     	; 0x29b6 <__ultoa_invert+0x6c>
    29cc:	ea cf       	rjmp	.-44     	; 0x29a2 <__ultoa_invert+0x58>
    29ce:	b4 e0       	ldi	r27, 0x04	; 4
    29d0:	a6 95       	lsr	r26
    29d2:	97 95       	ror	r25
    29d4:	87 95       	ror	r24
    29d6:	77 95       	ror	r23
    29d8:	67 95       	ror	r22
    29da:	ba 95       	dec	r27
    29dc:	c9 f7       	brne	.-14     	; 0x29d0 <__ultoa_invert+0x86>
    29de:	00 97       	sbiw	r24, 0x00	; 0
    29e0:	61 05       	cpc	r22, r1
    29e2:	71 05       	cpc	r23, r1
    29e4:	08 95       	ret
    29e6:	9b 01       	movw	r18, r22
    29e8:	ac 01       	movw	r20, r24
    29ea:	0a 2e       	mov	r0, r26
    29ec:	06 94       	lsr	r0
    29ee:	57 95       	ror	r21
    29f0:	47 95       	ror	r20
    29f2:	37 95       	ror	r19
    29f4:	27 95       	ror	r18
    29f6:	ba 95       	dec	r27
    29f8:	c9 f7       	brne	.-14     	; 0x29ec <__ultoa_invert+0xa2>
    29fa:	62 0f       	add	r22, r18
    29fc:	73 1f       	adc	r23, r19
    29fe:	84 1f       	adc	r24, r20
    2a00:	95 1f       	adc	r25, r21
    2a02:	a0 1d       	adc	r26, r0
    2a04:	08 95       	ret

00002a06 <__prologue_saves__>:
    2a06:	2f 92       	push	r2
    2a08:	3f 92       	push	r3
    2a0a:	4f 92       	push	r4
    2a0c:	5f 92       	push	r5
    2a0e:	6f 92       	push	r6
    2a10:	7f 92       	push	r7
    2a12:	8f 92       	push	r8
    2a14:	9f 92       	push	r9
    2a16:	af 92       	push	r10
    2a18:	bf 92       	push	r11
    2a1a:	cf 92       	push	r12
    2a1c:	df 92       	push	r13
    2a1e:	ef 92       	push	r14
    2a20:	ff 92       	push	r15
    2a22:	0f 93       	push	r16
    2a24:	1f 93       	push	r17
    2a26:	cf 93       	push	r28
    2a28:	df 93       	push	r29
    2a2a:	cd b7       	in	r28, 0x3d	; 61
    2a2c:	de b7       	in	r29, 0x3e	; 62
    2a2e:	ca 1b       	sub	r28, r26
    2a30:	db 0b       	sbc	r29, r27
    2a32:	0f b6       	in	r0, 0x3f	; 63
    2a34:	f8 94       	cli
    2a36:	de bf       	out	0x3e, r29	; 62
    2a38:	0f be       	out	0x3f, r0	; 63
    2a3a:	cd bf       	out	0x3d, r28	; 61
    2a3c:	09 94       	ijmp

00002a3e <__epilogue_restores__>:
    2a3e:	2a 88       	ldd	r2, Y+18	; 0x12
    2a40:	39 88       	ldd	r3, Y+17	; 0x11
    2a42:	48 88       	ldd	r4, Y+16	; 0x10
    2a44:	5f 84       	ldd	r5, Y+15	; 0x0f
    2a46:	6e 84       	ldd	r6, Y+14	; 0x0e
    2a48:	7d 84       	ldd	r7, Y+13	; 0x0d
    2a4a:	8c 84       	ldd	r8, Y+12	; 0x0c
    2a4c:	9b 84       	ldd	r9, Y+11	; 0x0b
    2a4e:	aa 84       	ldd	r10, Y+10	; 0x0a
    2a50:	b9 84       	ldd	r11, Y+9	; 0x09
    2a52:	c8 84       	ldd	r12, Y+8	; 0x08
    2a54:	df 80       	ldd	r13, Y+7	; 0x07
    2a56:	ee 80       	ldd	r14, Y+6	; 0x06
    2a58:	fd 80       	ldd	r15, Y+5	; 0x05
    2a5a:	0c 81       	ldd	r16, Y+4	; 0x04
    2a5c:	1b 81       	ldd	r17, Y+3	; 0x03
    2a5e:	aa 81       	ldd	r26, Y+2	; 0x02
    2a60:	b9 81       	ldd	r27, Y+1	; 0x01
    2a62:	ce 0f       	add	r28, r30
    2a64:	d1 1d       	adc	r29, r1
    2a66:	0f b6       	in	r0, 0x3f	; 63
    2a68:	f8 94       	cli
    2a6a:	de bf       	out	0x3e, r29	; 62
    2a6c:	0f be       	out	0x3f, r0	; 63
    2a6e:	cd bf       	out	0x3d, r28	; 61
    2a70:	ed 01       	movw	r28, r26
    2a72:	08 95       	ret

00002a74 <_exit>:
    2a74:	f8 94       	cli

00002a76 <__stop_program>:
    2a76:	ff cf       	rjmp	.-2      	; 0x2a76 <__stop_program>
